TN:
SF:C:\Users\oussa\PROJET-CPP/C:/msys64/ucrt64/include/c++/15.2.0/bits/basic_string.h
FN:238,_ZNKSt7__cxx1112basic_stringIcSt11char_traitsIcESaIcEE7_M_dataEv
FNDA:99,_ZNKSt7__cxx1112basic_stringIcSt11char_traitsIcESaIcEE7_M_dataEv
FN:254,_ZNKSt7__cxx1112basic_stringIcSt11char_traitsIcESaIcEE13_M_local_dataEv
FNDA:36,_ZNKSt7__cxx1112basic_stringIcSt11char_traitsIcESaIcEE13_M_local_dataEv
FN:278,_ZNKSt7__cxx1112basic_stringIcSt11char_traitsIcESaIcEE11_M_is_localEv
FNDA:36,_ZNKSt7__cxx1112basic_stringIcSt11char_traitsIcESaIcEE11_M_is_localEv
FN:296,_ZNSt7__cxx1112basic_stringIcSt11char_traitsIcESaIcEE10_M_disposeEv
FNDA:33,_ZNSt7__cxx1112basic_stringIcSt11char_traitsIcESaIcEE10_M_disposeEv
FN:304,_ZNSt7__cxx1112basic_stringIcSt11char_traitsIcESaIcEE10_M_destroyEy
FNDA:9,_ZNSt7__cxx1112basic_stringIcSt11char_traitsIcESaIcEE10_M_destroyEy
FN:359,_ZNSt7__cxx1112basic_stringIcSt11char_traitsIcESaIcEE16_M_get_allocatorEv
FNDA:16,_ZNSt7__cxx1112basic_stringIcSt11char_traitsIcESaIcEE16_M_get_allocatorEv
FN:895,_ZNSt7__cxx1112basic_stringIcSt11char_traitsIcESaIcEED1Ev
FNDA:33,_ZNSt7__cxx1112basic_stringIcSt11char_traitsIcESaIcEED1Ev
FNF:7
FNH:7
DA:238,99
DA:239,99
DA:254,36
DA:257,36
DA:278,36
DA:280,36
DA:282,27
DA:283,0
DA:284,27
DA:286,9
DA:296,33
DA:298,33
DA:299,9
DA:300,33
DA:304,9
DA:305,9
DA:359,16
DA:360,16
DA:895,33
DA:896,33
LF:20
LH:19
end_of_record
SF:C:\Users\oussa\PROJET-CPP/C:/msys64/ucrt64/include/c++/15.2.0/bits/allocator.h
LF:0
LH:0
end_of_record
SF:C:\Users\oussa\PROJET-CPP/C:/msys64/ucrt64/include/c++/15.2.0/bits/new_allocator.h
FN:104,_ZNSt15__new_allocatorIcED2Ev
FNDA:63,_ZNSt15__new_allocatorIcED2Ev
FN:156,_ZNSt15__new_allocatorIcE10deallocateEPcy
FNDA:9,_ZNSt15__new_allocatorIcE10deallocateEPcy
FNF:2
FNH:2
DA:104,63
DA:156,9
DA:172,9
LF:3
LH:3
end_of_record
SF:C:\Users\oussa\PROJET-CPP/C:/msys64/ucrt64/include/c++/15.2.0/bits/ptr_traits.h
FN:134,_ZNSt19__ptr_traits_ptr_toIPKcS0_Lb0EE10pointer_toERS0_
FNDA:36,_ZNSt19__ptr_traits_ptr_toIPKcS0_Lb0EE10pointer_toERS0_
FNF:1
FNH:1
DA:134,36
DA:135,36
LF:2
LH:2
end_of_record
SF:C:\Users\oussa\PROJET-CPP/Apprentissage.cpp
FN:12,_ZN13ApprentissageC2Ev
FNDA:1,_ZN13ApprentissageC2Ev
FN:15,_ZNK13Apprentissage28AfficheQuestionsAvecReponsesERK13Questionnaire
FNDA:1,_ZNK13Apprentissage28AfficheQuestionsAvecReponsesERK13Questionnaire
FNF:2
FNH:2
DA:12,1
DA:13,1
DA:15,1
DA:19,1
DA:20,1
DA:21,1
DA:23,1
DA:24,1
DA:26,1
DA:27,1
DA:29,1
DA:30,1
DA:31,1
DA:34,1
LF:14
LH:14
end_of_record
SF:C:\Users\oussa\PROJET-CPP/C:/msys64/ucrt64/include/c++/15.2.0/bits/stl_vector.h
FN:1117,_ZNKSt6vectorISt10unique_ptrI8QuestionSt14default_deleteIS1_EESaIS4_EE4sizeEv
FNDA:16,_ZNKSt6vectorISt10unique_ptrI8QuestionSt14default_deleteIS1_EESaIS4_EE4sizeEv
FN:1280,_ZNKSt6vectorISt10unique_ptrI8QuestionSt14default_deleteIS1_EESaIS4_EEixEy
FNDA:2,_ZNKSt6vectorISt10unique_ptrI8QuestionSt14default_deleteIS1_EESaIS4_EEixEy
FNF:2
FNH:2
DA:1117,16
DA:1119,16
DA:1120,16
DA:1121,0
DA:1122,16
DA:1280,2
DA:1282,2
DA:1283,2
LF:8
LH:7
end_of_record
SF:C:\Users\oussa\PROJET-CPP/C:/msys64/ucrt64/include/c++/15.2.0/bits/unique_ptr.h
FN:193,_ZNKSt15__uniq_ptr_implI8QuestionSt14default_deleteIS0_EE6_M_ptrEv
FNDA:2,_ZNKSt15__uniq_ptr_implI8QuestionSt14default_deleteIS0_EE6_M_ptrEv
FN:463,_ZNKSt10unique_ptrI8QuestionSt14default_deleteIS0_EEptEv
FNDA:2,_ZNKSt10unique_ptrI8QuestionSt14default_deleteIS0_EEptEv
FN:472,_ZNKSt10unique_ptrI8QuestionSt14default_deleteIS0_EE3getEv
FNDA:2,_ZNKSt10unique_ptrI8QuestionSt14default_deleteIS0_EE3getEv
FNF:3
FNH:3
DA:193,2
DA:463,2
DA:466,2
DA:472,2
DA:473,2
LF:5
LH:5
end_of_record
SF:C:\Users\oussa\PROJET-CPP/C:/msys64/ucrt64/include/c++/15.2.0/bits/move.h
DA:53,36
DA:177,36
LF:2
LH:2
end_of_record
SF:C:\Users\oussa\PROJET-CPP/C:/msys64/ucrt64/include/c++/15.2.0/tuple
FN:249,_ZNSt10_Head_baseILy0EP8QuestionLb0EE7_M_headERKS2_
FNDA:2,_ZNSt10_Head_baseILy0EP8QuestionLb0EE7_M_headERKS2_
FN:294,_ZNSt11_Tuple_implILy0EJP8QuestionSt14default_deleteIS0_EEE7_M_headERKS4_
FNDA:2,_ZNSt11_Tuple_implILy0EJP8QuestionSt14default_deleteIS0_EEE7_M_headERKS4_
FN:2433,_ZSt12__get_helperILy0EP8QuestionJSt14default_deleteIS0_EEERKT0_RKSt11_Tuple_implIXT_EJS4_DpT1_EE
FNDA:2,_ZSt12__get_helperILy0EP8QuestionJSt14default_deleteIS0_EEERKT0_RKSt11_Tuple_implIXT_EJS4_DpT1_EE
FN:2450,_ZSt3getILy0EJP8QuestionSt14default_deleteIS0_EEERKNSt13tuple_elementIXT_ESt5tupleIJDpT0_EEE4typeERKS8_
FNDA:2,_ZSt3getILy0EJP8QuestionSt14default_deleteIS0_EEERKNSt13tuple_elementIXT_ESt5tupleIJDpT0_EEE4typeERKS8_
FNF:4
FNH:4
DA:249,2
DA:294,2
DA:2433,2
DA:2434,2
DA:2450,2
DA:2451,2
LF:6
LH:6
end_of_record
SF:C:\Users\oussa\PROJET-CPP/C:/msys64/ucrt64/include/c++/15.2.0/bits/alloc_traits.h
DA:649,9
LF:1
LH:1
end_of_record
TN:
SF:C:\Users\oussa\PROJET-CPP/C:/msys64/ucrt64/include/c++/15.2.0/bits/unique_ptr.h
FN:193,_ZNKSt15__uniq_ptr_implI8QuestionSt14default_deleteIS0_EE6_M_ptrEv
FNDA:0,_ZNKSt15__uniq_ptr_implI8QuestionSt14default_deleteIS0_EE6_M_ptrEv
FN:463,_ZNKSt10unique_ptrI8QuestionSt14default_deleteIS0_EEptEv
FNDA:0,_ZNKSt10unique_ptrI8QuestionSt14default_deleteIS0_EEptEv
FN:472,_ZNKSt10unique_ptrI8QuestionSt14default_deleteIS0_EE3getEv
FNDA:0,_ZNKSt10unique_ptrI8QuestionSt14default_deleteIS0_EE3getEv
FNF:3
FNH:0
DA:193,0
DA:463,0
DA:466,0
DA:472,0
DA:473,0
LF:5
LH:0
end_of_record
SF:C:\Users\oussa\PROJET-CPP/C:/msys64/ucrt64/include/c++/15.2.0/bits/ptr_traits.h
FN:134,_ZNSt19__ptr_traits_ptr_toIPKcS0_Lb0EE10pointer_toERS0_
FNDA:0,_ZNSt19__ptr_traits_ptr_toIPKcS0_Lb0EE10pointer_toERS0_
FN:134,_ZNSt19__ptr_traits_ptr_toIPccLb0EE10pointer_toERc
FNDA:36,_ZNSt19__ptr_traits_ptr_toIPccLb0EE10pointer_toERc
FNF:2
FNH:1
DA:134,0
DA:135,0
DA:134,36
DA:135,36
LF:4
LH:2
end_of_record
SF:C:\Users\oussa\PROJET-CPP/C:/msys64/ucrt64/include/c++/15.2.0/bits/alloc_traits.h
DA:649,0
LF:1
LH:0
end_of_record
SF:C:\Users\oussa\PROJET-CPP/C:/msys64/ucrt64/include/c++/15.2.0/bits/move.h
DA:53,36
DA:139,31
DA:177,36
LF:3
LH:3
end_of_record
SF:C:\Users\oussa\PROJET-CPP/C:/msys64/ucrt64/include/c++/15.2.0/tuple
FN:249,_ZNSt10_Head_baseILy0EP8QuestionLb0EE7_M_headERKS2_
FNDA:0,_ZNSt10_Head_baseILy0EP8QuestionLb0EE7_M_headERKS2_
FN:294,_ZNSt11_Tuple_implILy0EJP8QuestionSt14default_deleteIS0_EEE7_M_headERKS4_
FNDA:0,_ZNSt11_Tuple_implILy0EJP8QuestionSt14default_deleteIS0_EEE7_M_headERKS4_
FN:2433,_ZSt12__get_helperILy0EP8QuestionJSt14default_deleteIS0_EEERKT0_RKSt11_Tuple_implIXT_EJS4_DpT1_EE
FNDA:0,_ZSt12__get_helperILy0EP8QuestionJSt14default_deleteIS0_EEERKT0_RKSt11_Tuple_implIXT_EJS4_DpT1_EE
FN:2450,_ZSt3getILy0EJP8QuestionSt14default_deleteIS0_EEERKNSt13tuple_elementIXT_ESt5tupleIJDpT0_EEE4typeERKS8_
FNDA:0,_ZSt3getILy0EJP8QuestionSt14default_deleteIS0_EEERKNSt13tuple_elementIXT_ESt5tupleIJDpT0_EEE4typeERKS8_
FNF:4
FNH:0
DA:249,0
DA:294,0
DA:2433,0
DA:2434,0
DA:2450,0
DA:2451,0
LF:6
LH:0
end_of_record
SF:C:\Users\oussa\PROJET-CPP/C:/msys64/ucrt64/include/c++/15.2.0/bits/allocator.h
DA:168,13
DA:173,31
DA:189,13
LF:3
LH:3
end_of_record
SF:C:\Users\oussa\PROJET-CPP/C:/msys64/ucrt64/include/c++/15.2.0/bits/char_traits.h
FN:345,_ZNSt11char_traitsIcE6assignERcRKc
FNDA:19,_ZNSt11char_traitsIcE6assignERcRKc
FNF:1
FNH:1
DA:345,19
DA:352,19
DA:353,19
LF:3
LH:3
end_of_record
SF:C:\Users\oussa\PROJET-CPP/C:/msys64/ucrt64/include/c++/15.2.0/bits/basic_string.h
FN:208,_ZNSt7__cxx1112basic_stringIcSt11char_traitsIcESaIcEE12_Alloc_hiderC1EPcOS3_
FNDA:31,_ZNSt7__cxx1112basic_stringIcSt11char_traitsIcESaIcEE12_Alloc_hiderC1EPcOS3_
FN:233,_ZNSt7__cxx1112basic_stringIcSt11char_traitsIcESaIcEE9_M_lengthEy
FNDA:36,_ZNSt7__cxx1112basic_stringIcSt11char_traitsIcESaIcEE9_M_lengthEy
FN:238,_ZNKSt7__cxx1112basic_stringIcSt11char_traitsIcESaIcEE7_M_dataEv
FNDA:0,_ZNKSt7__cxx1112basic_stringIcSt11char_traitsIcESaIcEE7_M_dataEv
FN:243,_ZNSt7__cxx1112basic_stringIcSt11char_traitsIcESaIcEE13_M_local_dataEv
FNDA:36,_ZNSt7__cxx1112basic_stringIcSt11char_traitsIcESaIcEE13_M_local_dataEv
FN:254,_ZNKSt7__cxx1112basic_stringIcSt11char_traitsIcESaIcEE13_M_local_dataEv
FNDA:0,_ZNKSt7__cxx1112basic_stringIcSt11char_traitsIcESaIcEE13_M_local_dataEv
FN:270,_ZNSt7__cxx1112basic_stringIcSt11char_traitsIcESaIcEE13_M_set_lengthEy
FNDA:18,_ZNSt7__cxx1112basic_stringIcSt11char_traitsIcESaIcEE13_M_set_lengthEy
FN:278,_ZNKSt7__cxx1112basic_stringIcSt11char_traitsIcESaIcEE11_M_is_localEv
FNDA:0,_ZNKSt7__cxx1112basic_stringIcSt11char_traitsIcESaIcEE11_M_is_localEv
FN:296,_ZNSt7__cxx1112basic_stringIcSt11char_traitsIcESaIcEE10_M_disposeEv
FNDA:0,_ZNSt7__cxx1112basic_stringIcSt11char_traitsIcESaIcEE10_M_disposeEv
FN:304,_ZNSt7__cxx1112basic_stringIcSt11char_traitsIcESaIcEE10_M_destroyEy
FNDA:0,_ZNSt7__cxx1112basic_stringIcSt11char_traitsIcESaIcEE10_M_destroyEy
FN:359,_ZNSt7__cxx1112basic_stringIcSt11char_traitsIcESaIcEE16_M_get_allocatorEv
FNDA:0,_ZNSt7__cxx1112basic_stringIcSt11char_traitsIcESaIcEE16_M_get_allocatorEv
FN:585,_ZNSt7__cxx1112basic_stringIcSt11char_traitsIcESaIcEEC1Ev
FNDA:13,_ZNSt7__cxx1112basic_stringIcSt11char_traitsIcESaIcEEC1Ev
FN:895,_ZNSt7__cxx1112basic_stringIcSt11char_traitsIcESaIcEED1Ev
FNDA:0,_ZNSt7__cxx1112basic_stringIcSt11char_traitsIcESaIcEED1Ev
FNF:12
FNH:5
DA:208,31
DA:209,31
DA:233,36
DA:234,36
DA:238,0
DA:239,0
DA:243,36
DA:246,36
DA:254,0
DA:257,0
DA:270,18
DA:272,18
DA:273,18
DA:274,18
DA:278,0
DA:280,0
DA:282,0
DA:283,0
DA:284,0
DA:286,0
DA:296,0
DA:298,0
DA:299,0
DA:300,0
DA:304,0
DA:305,0
DA:359,0
DA:360,0
DA:378,13
DA:585,13
DA:590,39
DA:593,13
DA:594,13
DA:895,0
DA:896,0
LF:35
LH:15
end_of_record
SF:C:\Users\oussa\PROJET-CPP/Evaluation.cpp
FN:9,_ZN10EvaluationC2ER13Questionnaire
FNDA:0,_ZN10EvaluationC2ER13Questionnaire
FN:12,_ZNK10Evaluation15get_NbQuestionsEv
FNDA:0,_ZNK10Evaluation15get_NbQuestionsEv
FN:18,_ZN10Evaluation13poserQuestionERKSt10unique_ptrI8QuestionSt14default_deleteIS1_EEb
FNDA:0,_ZN10Evaluation13poserQuestionERKSt10unique_ptrI8QuestionSt14default_deleteIS1_EEb
FNF:3
FNH:0
DA:9,0
DA:10,0
DA:12,0
DA:13,0
DA:18,0
DA:20,0
DA:22,0
DA:23,0
DA:24,0
DA:26,0
DA:29,0
DA:31,0
DA:32,0
DA:35,0
DA:36,0
LF:15
LH:0
end_of_record
SF:C:\Users\oussa\PROJET-CPP/C:/msys64/ucrt64/include/c++/15.2.0/bits/new_allocator.h
FN:104,_ZNSt15__new_allocatorIcED2Ev
FNDA:0,_ZNSt15__new_allocatorIcED2Ev
FN:156,_ZNSt15__new_allocatorIcE10deallocateEPcy
FNDA:0,_ZNSt15__new_allocatorIcE10deallocateEPcy
FNF:2
FNH:0
DA:88,13
DA:92,31
DA:104,0
DA:156,0
DA:172,0
LF:5
LH:2
end_of_record
TN:
SF:C:\Users\oussa\PROJET-CPP/C:/msys64/ucrt64/include/c++/15.2.0/bits/stl_iterator.h
DA:1058,0
DA:1059,0
DA:1090,0
DA:1103,0
DA:1104,0
DA:1166,0
DA:1247,0
DA:1340,0
DA:3011,0
LF:9
LH:0
end_of_record
SF:C:\Users\oussa\PROJET-CPP/C:/msys64/ucrt64/include/c++/15.2.0/bits/new_allocator.h
FN:104,_ZNSt15__new_allocatorIiED2Ev
FNDA:0,_ZNSt15__new_allocatorIiED2Ev
FN:126,_ZNSt15__new_allocatorIiE8allocateEyPKv
FNDA:0,_ZNSt15__new_allocatorIiE8allocateEyPKv
FN:156,_ZNSt15__new_allocatorIiE10deallocateEPiy
FNDA:0,_ZNSt15__new_allocatorIiE10deallocateEPiy
FNF:3
FNH:0
DA:88,0
DA:92,0
DA:104,0
DA:126,0
DA:134,0
DA:138,0
DA:139,0
DA:140,0
DA:151,0
DA:156,0
DA:172,0
DA:183,0
DA:191,0
DA:233,0
LF:14
LH:0
end_of_record
SF:C:\Users\oussa\PROJET-CPP/C:/msys64/ucrt64/include/c++/15.2.0/bits/vector.tcc
FN:557,_ZNSt6vectorIiSaIiEE17_M_realloc_appendIJRKiEEEvDpOT_
FNDA:0,_ZNSt6vectorIiSaIiEE17_M_realloc_appendIJRKiEEEvDpOT_
FNF:1
FNH:0
DA:557,0
DA:566,0
DA:567,0
DA:568,0
DA:569,0
DA:570,0
DA:571,0
DA:572,0
DA:573,0
DA:576,0
DA:586,0
DA:587,0
DA:599,0
DA:600,0
DA:601,0
DA:638,0
DA:639,0
DA:640,0
DA:644,0
DA:645,0
DA:646,0
DA:647,0
LF:22
LH:0
end_of_record
SF:C:\Users\oussa\PROJET-CPP/C:/msys64/ucrt64/include/c++/15.2.0/bits/allocator.h
DA:168,0
DA:173,0
DA:189,0
LF:3
LH:0
end_of_record
SF:C:\Users\oussa\PROJET-CPP/C:/msys64/ucrt64/include/c++/15.2.0/bits/stl_algobase.h
FN:234,_ZSt3minIyERKT_S2_S2_
FNDA:50,_ZSt3minIyERKT_S2_S2_
FN:258,_ZSt3maxIyERKT_S2_S2_
FNDA:6,_ZSt3maxIyERKT_S2_S2_
FN:897,_ZSt9__fill_a1IPiiEvT_S1_RKT0_
FNDA:0,_ZSt9__fill_a1IPiiEvT_S1_RKT0_
FN:1028,_ZSt17__size_to_integery
FNDA:0,_ZSt17__size_to_integery
FNF:4
FNH:2
DA:234,50
DA:239,50
DA:240,0
DA:241,50
DA:258,6
DA:263,6
DA:264,2
DA:265,4
DA:897,0
DA:906,0
DA:923,0
DA:924,0
DA:925,0
DA:926,0
DA:979,0
DA:1028,0
DA:1143,0
DA:1144,0
DA:1148,0
DA:1149,0
DA:1178,0
DA:1179,0
LF:22
LH:7
end_of_record
SF:C:\Users\oussa\PROJET-CPP/C:/msys64/ucrt64/include/c++/15.2.0/bits/ptr_traits.h
DA:211,0
LF:1
LH:0
end_of_record
SF:C:\Users\oussa\PROJET-CPP/C:/msys64/ucrt64/include/c++/15.2.0/new
FN:206,_ZnwyPv
FNDA:15,_ZnwyPv
FN:217,_ZdlPvS_
FNDA:0,_ZdlPvS_
FNF:2
FNH:1
DA:206,15
DA:208,15
DA:217,0
DA:219,0
LF:4
LH:2
end_of_record
SF:C:\Users\oussa\PROJET-CPP/EvaluationAdap.h
LF:0
LH:0
end_of_record
SF:C:\Users\oussa\PROJET-CPP/EvaluationAdap.cpp
FN:10,_ZN20EvaluationAdaptativeC2ER13Questionnaire
FNDA:0,_ZN20EvaluationAdaptativeC2ER13Questionnaire
FN:13,_ZN20EvaluationAdaptative6lancerEv
FNDA:0,_ZN20EvaluationAdaptative6lancerEv
FNF:2
FNH:0
DA:10,0
DA:11,0
DA:13,0
DA:14,0
DA:15,0
DA:16,0
DA:17,0
DA:20,0
DA:22,0
DA:24,0
DA:25,0
DA:26,0
DA:29,0
DA:30,0
DA:31,0
DA:34,0
DA:35,0
DA:37,0
DA:39,0
DA:40,0
DA:41,0
DA:43,0
DA:44,0
DA:45,0
DA:46,0
DA:48,0
DA:53,0
DA:54,0
DA:55,0
DA:56,0
DA:57,0
DA:58,0
DA:63,0
DA:64,0
DA:65,0
DA:66,0
DA:67,0
LF:37
LH:0
end_of_record
SF:C:\Users\oussa\PROJET-CPP/Evaluation.h
FN:22,_ZN10EvaluationD2Ev
FNDA:0,_ZN10EvaluationD2Ev
FNF:1
FNH:0
DA:22,0
LF:1
LH:0
end_of_record
SF:C:\Users\oussa\PROJET-CPP/C:/msys64/ucrt64/include/c++/15.2.0/bits/stl_iterator_base_types.h
DA:242,0
LF:1
LH:0
end_of_record
SF:C:\Users\oussa\PROJET-CPP/C:/msys64/ucrt64/include/c++/15.2.0/bits/stl_uninitialized.h
FN:888,_ZNSt27__uninitialized_default_n_1ILb1EE18__uninit_default_nIPiyEET_S3_T0_
FNDA:0,_ZNSt27__uninitialized_default_n_1ILb1EE18__uninit_default_nIPiyEET_S3_T0_
FN:931,_ZSt25__uninitialized_default_nIPiyET_S1_T0_
FNDA:0,_ZSt25__uninitialized_default_nIPiyET_S1_T0_
FN:1000,_ZSt27__uninitialized_default_n_aIPiyiET_S1_T0_RSaIT1_E
FNDA:0,_ZSt27__uninitialized_default_n_aIPiyiET_S1_T0_RSaIT1_E
FN:1326,_ZSt14__relocate_a_1IiiENSt9enable_ifIXsrSt24__is_bitwise_relocatableIT_vE5valueEPS2_E4typeES4_S4_S4_RSaIT0_E
FNDA:0,_ZSt14__relocate_a_1IiiENSt9enable_ifIXsrSt24__is_bitwise_relocatableIT_vE5valueEPS2_E4typeES4_S4_S4_RSaIT0_E
FN:1353,_ZSt12__relocate_aIPiS0_SaIiEET0_T_S3_S2_RT1_
FNDA:0,_ZSt12__relocate_aIPiS0_SaIiEET0_T_S3_S2_RT1_
FNF:5
FNH:0
DA:888,0
DA:890,0
DA:893,0
DA:894,0
DA:895,0
DA:896,0
DA:898,0
DA:931,0
DA:942,0
DA:947,0
DA:1000,0
DA:1002,0
DA:1326,0
DA:1330,0
DA:1331,0
DA:1343,0
DA:1345,0
DA:1353,0
DA:1359,0
DA:1361,0
LF:20
LH:0
end_of_record
SF:C:\Users\oussa\PROJET-CPP/C:/msys64/ucrt64/include/c++/15.2.0/bits/alloc_traits.h
DA:614,0
DA:649,0
DA:674,0
DA:680,0
DA:712,0
DA:1045,0
DA:1046,0
LF:7
LH:0
end_of_record
SF:C:\Users\oussa\PROJET-CPP/C:/msys64/ucrt64/include/c++/15.2.0/bits/stl_construct.h
FN:123,_ZSt10_ConstructIiJEEvPT_DpOT0_
FNDA:0,_ZSt10_ConstructIiJEEvPT_DpOT0_
FN:202,_ZSt8_DestroyIPiEvT_S1_
FNDA:0,_ZSt8_DestroyIPiEvT_S1_
FNF:2
FNH:0
DA:123,0
DA:133,0
DA:134,0
DA:202,0
DA:222,0
LF:5
LH:0
end_of_record
SF:C:\Users\oussa\PROJET-CPP/C:/msys64/ucrt64/include/c++/15.2.0/bits/move.h
FN:227,_ZSt4swapIiENSt9enable_ifIXsrSt6__and_IJSt6__not_ISt15__is_tuple_likeIT_EESt21is_move_constructibleIS4_ESt18is_move_assignableIS4_EEE5valueEvE4typeERS4_SE_
FNDA:0,_ZSt4swapIiENSt9enable_ifIXsrSt6__and_IJSt6__not_ISt15__is_tuple_likeIT_EESt21is_move_constructibleIS4_ESt18is_move_assignableIS4_EEE5valueEvE4typeERS4_SE_
FNF:1
FNH:0
DA:53,0
DA:73,0
DA:139,0
DA:227,0
DA:235,0
DA:236,0
DA:237,0
DA:238,0
LF:8
LH:0
end_of_record
SF:C:\Users\oussa\PROJET-CPP/C:/msys64/ucrt64/include/c++/15.2.0/bits/stl_vector.h
FN:105,_ZNSt12_Vector_baseIiSaIiEE17_Vector_impl_dataC2Ev
FNDA:0,_ZNSt12_Vector_baseIiSaIiEE17_Vector_impl_dataC2Ev
FN:143,_ZNSt12_Vector_baseIiSaIiEE12_Vector_implC1Ev
FNDA:0,_ZNSt12_Vector_baseIiSaIiEE12_Vector_implC1Ev
FN:152,_ZNSt12_Vector_baseIiSaIiEE12_Vector_implC1ERKS0_
FNDA:0,_ZNSt12_Vector_baseIiSaIiEE12_Vector_implC1ERKS0_
FN:307,_ZNSt12_Vector_baseIiSaIiEE19_M_get_Tp_allocatorEv
FNDA:0,_ZNSt12_Vector_baseIiSaIiEE19_M_get_Tp_allocatorEv
FN:312,_ZNKSt12_Vector_baseIiSaIiEE19_M_get_Tp_allocatorEv
FNDA:0,_ZNKSt12_Vector_baseIiSaIiEE19_M_get_Tp_allocatorEv
FN:321,_ZNSt12_Vector_baseIiSaIiEEC2Ev
FNDA:0,_ZNSt12_Vector_baseIiSaIiEEC2Ev
FN:339,_ZNSt12_Vector_baseIiSaIiEEC2EyRKS0_
FNDA:0,_ZNSt12_Vector_baseIiSaIiEEC2EyRKS0_
FN:373,_ZNSt12_Vector_baseIiSaIiEED2Ev
FNDA:0,_ZNSt12_Vector_baseIiSaIiEED2Ev
FN:384,_ZNSt12_Vector_baseIiSaIiEE11_M_allocateEy
FNDA:0,_ZNSt12_Vector_baseIiSaIiEE11_M_allocateEy
FN:392,_ZNSt12_Vector_baseIiSaIiEE13_M_deallocateEPiy
FNDA:0,_ZNSt12_Vector_baseIiSaIiEE13_M_deallocateEPiy
FN:403,_ZNSt12_Vector_baseIiSaIiEE17_M_create_storageEy
FNDA:0,_ZNSt12_Vector_baseIiSaIiEE17_M_create_storageEy
FN:534,_ZNSt6vectorIiSaIiEE11_S_relocateEPiS2_S2_RS0_
FNDA:0,_ZNSt6vectorIiSaIiEE11_S_relocateEPiS2_S2_RS0_
FN:561,_ZNSt6vectorIiSaIiEEC1Ev
FNDA:0,_ZNSt6vectorIiSaIiEEC1Ev
FN:586,_ZNSt6vectorIiSaIiEEC1EyRKS0_
FNDA:0,_ZNSt6vectorIiSaIiEEC1EyRKS0_
FN:800,_ZNSt6vectorIiSaIiEED1Ev
FNDA:0,_ZNSt6vectorIiSaIiEED1Ev
FN:998,_ZNSt6vectorIiSaIiEE5beginEv
FNDA:0,_ZNSt6vectorIiSaIiEE5beginEv
FN:1018,_ZNSt6vectorIiSaIiEE3endEv
FNDA:0,_ZNSt6vectorIiSaIiEE3endEv
FN:1117,_ZNKSt6vectorISt10unique_ptrI8QuestionSt14default_deleteIS1_EESaIS4_EE4sizeEv
FNDA:0,_ZNKSt6vectorISt10unique_ptrI8QuestionSt14default_deleteIS1_EESaIS4_EE4sizeEv
FN:1117,_ZNKSt6vectorIiSaIiEE4sizeEv
FNDA:0,_ZNKSt6vectorIiSaIiEE4sizeEv
FN:1128,_ZNKSt6vectorIiSaIiEE8max_sizeEv
FNDA:0,_ZNKSt6vectorIiSaIiEE8max_sizeEv
FN:1261,_ZNSt6vectorIiSaIiEEixEy
FNDA:0,_ZNSt6vectorIiSaIiEEixEy
FN:1280,_ZNKSt6vectorISt10unique_ptrI8QuestionSt14default_deleteIS1_EESaIS4_EEixEy
FNDA:0,_ZNKSt6vectorISt10unique_ptrI8QuestionSt14default_deleteIS1_EESaIS4_EEixEy
FN:1416,_ZNSt6vectorIiSaIiEE9push_backERKi
FNDA:0,_ZNSt6vectorIiSaIiEE9push_backERKi
FN:1875,_ZNSt6vectorIiSaIiEE12_Guard_allocC1EPiyRSt12_Vector_baseIiS0_E
FNDA:0,_ZNSt6vectorIiSaIiEE12_Guard_allocC1EPiyRSt12_Vector_baseIiS0_E
FN:1880,_ZNSt6vectorIiSaIiEE12_Guard_allocD1Ev
FNDA:0,_ZNSt6vectorIiSaIiEE12_Guard_allocD1Ev
FN:2008,_ZNSt6vectorIiSaIiEE21_M_default_initializeEy
FNDA:0,_ZNSt6vectorIiSaIiEE21_M_default_initializeEy
FN:2197,_ZNKSt6vectorIiSaIiEE12_M_check_lenEyPKc
FNDA:0,_ZNKSt6vectorIiSaIiEE12_M_check_lenEyPKc
FN:2208,_ZNSt6vectorIiSaIiEE17_S_check_init_lenEyRKS0_
FNDA:0,_ZNSt6vectorIiSaIiEE17_S_check_init_lenEyRKS0_
FN:2217,_ZNSt6vectorIiSaIiEE11_S_max_sizeERKS0_
FNDA:0,_ZNSt6vectorIiSaIiEE11_S_max_sizeERKS0_
FNF:29
FNH:0
DA:105,0
DA:106,0
DA:107,0
DA:143,0
DA:148,0
DA:149,0
DA:152,0
DA:153,0
DA:154,0
DA:307,0
DA:308,0
DA:312,0
DA:313,0
DA:321,0
DA:339,0
DA:340,0
DA:341,0
DA:373,0
DA:375,0
DA:376,0
DA:377,0
DA:384,0
DA:387,0
DA:392,0
DA:395,0
DA:396,0
DA:397,0
DA:403,0
DA:405,0
DA:406,0
DA:407,0
DA:408,0
DA:534,0
DA:539,0
DA:561,0
DA:586,0
DA:587,0
DA:588,0
DA:800,0
DA:802,0
DA:803,0
DA:805,0
DA:998,0
DA:999,0
DA:1018,0
DA:1019,0
DA:1117,0
DA:1119,0
DA:1120,0
DA:1121,0
DA:1122,0
DA:1117,0
DA:1119,0
DA:1120,0
DA:1121,0
DA:1122,0
DA:1128,0
DA:1129,0
DA:1261,0
DA:1263,0
DA:1264,0
DA:1280,0
DA:1282,0
DA:1283,0
DA:1416,0
DA:1418,0
DA:1421,0
DA:1423,0
DA:1427,0
DA:1428,0
DA:1875,0
DA:1876,0
DA:1877,0
DA:1880,0
DA:1882,0
DA:1883,0
DA:1884,0
DA:2008,0
DA:2010,0
DA:2011,0
DA:2012,0
DA:2013,0
DA:2197,0
DA:2199,0
DA:2200,0
DA:2202,0
DA:2203,0
DA:2208,0
DA:2210,0
DA:2211,0
DA:2213,0
DA:2217,0
DA:2222,0
DA:2224,0
DA:2225,0
LF:95
LH:0
end_of_record
TN:
SF:C:\Users\oussa\PROJET-CPP/EvaluationSecChance.h
LF:0
LH:0
end_of_record
SF:C:\Users\oussa\PROJET-CPP/EvaluationSecChance.cpp
FN:13,_ZN23EvaluationSecondeChanceC2ER13Questionnaire
FNDA:0,_ZN23EvaluationSecondeChanceC2ER13Questionnaire
FN:16,_ZN23EvaluationSecondeChance6lancerEv
FNDA:0,_ZN23EvaluationSecondeChance6lancerEv
FNF:2
FNH:0
DA:13,0
DA:14,0
DA:16,0
DA:18,0
DA:19,0
DA:20,0
DA:21,0
DA:25,0
DA:26,0
DA:28,0
DA:30,0
DA:31,0
DA:32,0
DA:34,0
DA:35,0
DA:37,0
DA:38,0
DA:39,0
DA:42,0
DA:43,0
DA:45,0
DA:46,0
DA:49,0
DA:50,0
DA:51,0
DA:52,0
LF:26
LH:0
end_of_record
SF:C:\Users\oussa\PROJET-CPP/C:/msys64/ucrt64/include/c++/15.2.0/bits/stl_iterator.h
DA:1058,6
DA:1059,6
DA:1090,0
DA:1103,0
DA:1104,0
DA:1166,0
DA:1247,0
LF:7
LH:2
end_of_record
SF:C:\Users\oussa\PROJET-CPP/C:/msys64/ucrt64/include/c++/15.2.0/bits/stl_vector.h
FN:1008,_ZNKSt6vectorISt10unique_ptrI8QuestionSt14default_deleteIS1_EESaIS4_EE5beginEv
FNDA:3,_ZNKSt6vectorISt10unique_ptrI8QuestionSt14default_deleteIS1_EESaIS4_EE5beginEv
FN:1028,_ZNKSt6vectorISt10unique_ptrI8QuestionSt14default_deleteIS1_EESaIS4_EE3endEv
FNDA:3,_ZNKSt6vectorISt10unique_ptrI8QuestionSt14default_deleteIS1_EESaIS4_EE3endEv
FNF:2
FNH:2
DA:1008,3
DA:1009,3
DA:1028,3
DA:1029,3
LF:4
LH:4
end_of_record
SF:C:\Users\oussa\PROJET-CPP/Evaluation.h
FN:22,_ZN10EvaluationD2Ev
FNDA:0,_ZN10EvaluationD2Ev
FNF:1
FNH:0
DA:22,0
LF:1
LH:0
end_of_record
TN:
SF:C:\Users\oussa\PROJET-CPP/C:/msys64/ucrt64/include/c++/15.2.0/bits/stl_vector.h
FN:1008,_ZNKSt6vectorISt10unique_ptrI8QuestionSt14default_deleteIS1_EESaIS4_EE5beginEv
FNDA:0,_ZNKSt6vectorISt10unique_ptrI8QuestionSt14default_deleteIS1_EESaIS4_EE5beginEv
FN:1028,_ZNKSt6vectorISt10unique_ptrI8QuestionSt14default_deleteIS1_EESaIS4_EE3endEv
FNDA:0,_ZNKSt6vectorISt10unique_ptrI8QuestionSt14default_deleteIS1_EESaIS4_EE3endEv
FNF:2
FNH:0
DA:1008,0
DA:1009,0
DA:1028,0
DA:1029,0
LF:4
LH:0
end_of_record
SF:C:\Users\oussa\PROJET-CPP/Evaluation.h
FN:22,_ZN10EvaluationD2Ev
FNDA:0,_ZN10EvaluationD2Ev
FNF:1
FNH:0
DA:22,0
LF:1
LH:0
end_of_record
SF:C:\Users\oussa\PROJET-CPP/EvaluationTest.h
LF:0
LH:0
end_of_record
SF:C:\Users\oussa\PROJET-CPP/EvaluationTest.cpp
FN:11,_ZN14EvaluationTestC2ER13Questionnaire
FNDA:0,_ZN14EvaluationTestC2ER13Questionnaire
FN:14,_ZN14EvaluationTest6lancerEv
FNDA:0,_ZN14EvaluationTest6lancerEv
FNF:2
FNH:0
DA:11,0
DA:12,0
DA:14,0
DA:15,0
DA:16,0
DA:17,0
DA:18,0
DA:21,0
DA:23,0
DA:25,0
DA:26,0
DA:27,0
DA:28,0
DA:29,0
DA:32,0
DA:33,0
DA:34,0
DA:35,0
LF:18
LH:0
end_of_record
SF:C:\Users\oussa\PROJET-CPP/C:/msys64/ucrt64/include/c++/15.2.0/bits/stl_iterator.h
DA:1058,0
DA:1059,0
DA:1090,0
DA:1103,0
DA:1104,0
DA:1166,0
DA:1247,0
LF:7
LH:0
end_of_record
TN:
SF:C:\Users\oussa\PROJET-CPP/goto_xy_windows.cpp
FN:4,_Z7goto_xyii
FNDA:8,_Z7goto_xyii
FNF:1
FNH:1
DA:4,8
DA:8,8
DA:9,8
DA:10,8
DA:11,8
DA:12,8
LF:6
LH:6
end_of_record
TN:
SF:C:\Users\oussa\PROJET-CPP/C:/msys64/ucrt64/include/c++/15.2.0/tuple
FN:137,_ZNSt10_Head_baseILy1ESt14default_deleteI8QuestionELb1EE7_M_headERS3_
FNDA:0,_ZNSt10_Head_baseILy1ESt14default_deleteI8QuestionELb1EE7_M_headERS3_
FN:246,_ZNSt10_Head_baseILy0EP8QuestionLb0EE7_M_headERS2_
FNDA:0,_ZNSt10_Head_baseILy0EP8QuestionLb0EE7_M_headERS2_
FN:291,_ZNSt11_Tuple_implILy0EJP8QuestionSt14default_deleteIS0_EEE7_M_headERS4_
FNDA:0,_ZNSt11_Tuple_implILy0EJP8QuestionSt14default_deleteIS0_EEE7_M_headERS4_
FN:554,_ZNSt11_Tuple_implILy1EJSt14default_deleteI8QuestionEEE7_M_headERS3_
FNDA:0,_ZNSt11_Tuple_implILy1EJSt14default_deleteI8QuestionEEE7_M_headERS3_
FN:2428,_ZSt12__get_helperILy1ESt14default_deleteI8QuestionEJEERT0_RSt11_Tuple_implIXT_EJS3_DpT1_EE
FNDA:0,_ZSt12__get_helperILy1ESt14default_deleteI8QuestionEJEERT0_RSt11_Tuple_implIXT_EJS3_DpT1_EE
FN:2428,_ZSt12__get_helperILy0EP8QuestionJSt14default_deleteIS0_EEERT0_RSt11_Tuple_implIXT_EJS4_DpT1_EE
FNDA:0,_ZSt12__get_helperILy0EP8QuestionJSt14default_deleteIS0_EEERT0_RSt11_Tuple_implIXT_EJS4_DpT1_EE
FN:2444,_ZSt3getILy1EJP8QuestionSt14default_deleteIS0_EEERNSt13tuple_elementIXT_ESt5tupleIJDpT0_EEE4typeERS8_
FNDA:0,_ZSt3getILy1EJP8QuestionSt14default_deleteIS0_EEERNSt13tuple_elementIXT_ESt5tupleIJDpT0_EEE4typeERS8_
FN:2444,_ZSt3getILy0EJP8QuestionSt14default_deleteIS0_EEERNSt13tuple_elementIXT_ESt5tupleIJDpT0_EEE4typeERS8_
FNDA:0,_ZSt3getILy0EJP8QuestionSt14default_deleteIS0_EEERNSt13tuple_elementIXT_ESt5tupleIJDpT0_EEE4typeERS8_
FNF:8
FNH:0
DA:137,0
DA:246,0
DA:291,0
DA:554,0
DA:2428,0
DA:2429,0
DA:2428,0
DA:2429,0
DA:2444,0
DA:2445,0
DA:2444,0
DA:2445,0
LF:12
LH:0
end_of_record
SF:C:\Users\oussa\PROJET-CPP/C:/msys64/ucrt64/include/c++/15.2.0/bits/unique_ptr.h
FN:87,_ZNKSt14default_deleteI8QuestionEclEPS0_
FNDA:0,_ZNKSt14default_deleteI8QuestionEclEPS0_
FN:191,_ZNSt15__uniq_ptr_implI8QuestionSt14default_deleteIS0_EE6_M_ptrEv
FNDA:0,_ZNSt15__uniq_ptr_implI8QuestionSt14default_deleteIS0_EE6_M_ptrEv
FN:195,_ZNSt15__uniq_ptr_implI8QuestionSt14default_deleteIS0_EE10_M_deleterEv
FNDA:0,_ZNSt15__uniq_ptr_implI8QuestionSt14default_deleteIS0_EE10_M_deleterEv
FN:393,_ZNSt10unique_ptrI8QuestionSt14default_deleteIS0_EED1Ev
FNDA:0,_ZNSt10unique_ptrI8QuestionSt14default_deleteIS0_EED1Ev
FN:478,_ZNSt10unique_ptrI8QuestionSt14default_deleteIS0_EE11get_deleterEv
FNDA:0,_ZNSt10unique_ptrI8QuestionSt14default_deleteIS0_EE11get_deleterEv
FNF:5
FNH:0
DA:87,0
DA:93,0
DA:94,0
DA:191,0
DA:195,0
DA:393,0
DA:397,0
DA:398,0
DA:399,0
DA:400,0
DA:401,0
DA:478,0
DA:479,0
LF:13
LH:0
end_of_record
SF:C:\Users\oussa\PROJET-CPP/C:/msys64/ucrt64/include/c++/15.2.0/bits/stl_iterator_base_funcs.h
DA:108,2
DA:153,4
DA:154,4
LF:3
LH:3
end_of_record
SF:C:\Users\oussa\PROJET-CPP/C:/msys64/ucrt64/include/c++/15.2.0/x86_64-w64-mingw32/bits/c++config.h
DA:589,0
LF:1
LH:0
end_of_record
SF:C:\Users\oussa\PROJET-CPP/Evaluation.h
FN:22,_ZN10EvaluationD2Ev
FNDA:0,_ZN10EvaluationD2Ev
FNF:1
FNH:0
DA:22,0
LF:1
LH:0
end_of_record
SF:C:\Users\oussa\PROJET-CPP/C:/msys64/ucrt64/include/c++/15.2.0/bits/char_traits.h
FN:138,_ZN9__gnu_cxx11char_traitsIcE2eqERKcS3_
FNDA:0,_ZN9__gnu_cxx11char_traitsIcE2eqERKcS3_
FN:201,_ZN9__gnu_cxx11char_traitsIcE6lengthEPKc
FNDA:0,_ZN9__gnu_cxx11char_traitsIcE6lengthEPKc
FN:345,_ZNSt11char_traitsIcE6assignERcRKc
FNDA:0,_ZNSt11char_traitsIcE6assignERcRKc
FN:387,_ZNSt11char_traitsIcE6lengthEPKc
FNDA:0,_ZNSt11char_traitsIcE6lengthEPKc
FN:421,_ZNSt11char_traitsIcE4copyEPcPKcy
FNDA:0,_ZNSt11char_traitsIcE4copyEPcPKcy
FNF:5
FNH:0
DA:138,0
DA:139,0
DA:201,0
DA:204,0
DA:205,0
DA:206,0
DA:207,0
DA:345,0
DA:352,0
DA:353,0
DA:387,0
DA:390,0
DA:391,0
DA:393,0
DA:421,0
DA:423,0
DA:424,0
DA:429,0
LF:18
LH:0
end_of_record
SF:C:\Users\oussa\PROJET-CPP/C:/msys64/ucrt64/include/c++/15.2.0/bits/stl_iterator.h
DA:3011,2
LF:1
LH:1
end_of_record
SF:C:\Users\oussa\PROJET-CPP/C:/msys64/ucrt64/include/c++/15.2.0/bits/basic_string.h
FN:140,_ZNSt7__cxx1112basic_stringIcSt11char_traitsIcESaIcEE11_S_allocateERS3_y
FNDA:0,_ZNSt7__cxx1112basic_stringIcSt11char_traitsIcESaIcEE11_S_allocateERS3_y
FN:204,_ZNSt7__cxx1112basic_stringIcSt11char_traitsIcESaIcEE12_Alloc_hiderC1EPcRKS3_
FNDA:2,_ZNSt7__cxx1112basic_stringIcSt11char_traitsIcESaIcEE12_Alloc_hiderC1EPcRKS3_
FN:228,_ZNSt7__cxx1112basic_stringIcSt11char_traitsIcESaIcEE7_M_dataEPc
FNDA:0,_ZNSt7__cxx1112basic_stringIcSt11char_traitsIcESaIcEE7_M_dataEPc
FN:233,_ZNSt7__cxx1112basic_stringIcSt11char_traitsIcESaIcEE9_M_lengthEy
FNDA:0,_ZNSt7__cxx1112basic_stringIcSt11char_traitsIcESaIcEE9_M_lengthEy
FN:238,_ZNKSt7__cxx1112basic_stringIcSt11char_traitsIcESaIcEE7_M_dataEv
FNDA:0,_ZNKSt7__cxx1112basic_stringIcSt11char_traitsIcESaIcEE7_M_dataEv
FN:243,_ZNSt7__cxx1112basic_stringIcSt11char_traitsIcESaIcEE13_M_local_dataEv
FNDA:0,_ZNSt7__cxx1112basic_stringIcSt11char_traitsIcESaIcEE13_M_local_dataEv
FN:254,_ZNKSt7__cxx1112basic_stringIcSt11char_traitsIcESaIcEE13_M_local_dataEv
FNDA:0,_ZNKSt7__cxx1112basic_stringIcSt11char_traitsIcESaIcEE13_M_local_dataEv
FN:265,_ZNSt7__cxx1112basic_stringIcSt11char_traitsIcESaIcEE11_M_capacityEy
FNDA:0,_ZNSt7__cxx1112basic_stringIcSt11char_traitsIcESaIcEE11_M_capacityEy
FN:270,_ZNSt7__cxx1112basic_stringIcSt11char_traitsIcESaIcEE13_M_set_lengthEy
FNDA:0,_ZNSt7__cxx1112basic_stringIcSt11char_traitsIcESaIcEE13_M_set_lengthEy
FN:278,_ZNKSt7__cxx1112basic_stringIcSt11char_traitsIcESaIcEE11_M_is_localEv
FNDA:0,_ZNKSt7__cxx1112basic_stringIcSt11char_traitsIcESaIcEE11_M_is_localEv
FN:296,_ZNSt7__cxx1112basic_stringIcSt11char_traitsIcESaIcEE10_M_disposeEv
FNDA:0,_ZNSt7__cxx1112basic_stringIcSt11char_traitsIcESaIcEE10_M_disposeEv
FN:304,_ZNSt7__cxx1112basic_stringIcSt11char_traitsIcESaIcEE10_M_destroyEy
FNDA:0,_ZNSt7__cxx1112basic_stringIcSt11char_traitsIcESaIcEE10_M_destroyEy
FN:359,_ZNSt7__cxx1112basic_stringIcSt11char_traitsIcESaIcEE16_M_get_allocatorEv
FNDA:0,_ZNSt7__cxx1112basic_stringIcSt11char_traitsIcESaIcEE16_M_get_allocatorEv
FN:364,_ZNKSt7__cxx1112basic_stringIcSt11char_traitsIcESaIcEE16_M_get_allocatorEv
FNDA:0,_ZNKSt7__cxx1112basic_stringIcSt11char_traitsIcESaIcEE16_M_get_allocatorEv
FN:448,_ZNSt7__cxx1112basic_stringIcSt11char_traitsIcESaIcEE7_S_copyEPcPKcy
FNDA:0,_ZNSt7__cxx1112basic_stringIcSt11char_traitsIcESaIcEE7_S_copyEPcPKcy
FN:483,_ZNSt7__cxx1112basic_stringIcSt11char_traitsIcESaIcEE13_S_copy_charsIPKcEEvPcT_S9_
FNDA:2,_ZNSt7__cxx1112basic_stringIcSt11char_traitsIcESaIcEE13_S_copy_charsIPKcEEvPcT_S9_
FN:706,_ZNSt7__cxx1112basic_stringIcSt11char_traitsIcESaIcEEC1IS3_EEPKcRKS3_
FNDA:2,_ZNSt7__cxx1112basic_stringIcSt11char_traitsIcESaIcEEC1IS3_EEPKcRKS3_
FN:895,_ZNSt7__cxx1112basic_stringIcSt11char_traitsIcESaIcEED1Ev
FNDA:0,_ZNSt7__cxx1112basic_stringIcSt11char_traitsIcESaIcEED1Ev
FN:1181,_ZNKSt7__cxx1112basic_stringIcSt11char_traitsIcESaIcEE8max_sizeEv
FNDA:0,_ZNKSt7__cxx1112basic_stringIcSt11char_traitsIcESaIcEE8max_sizeEv
FNF:19
FNH:3
DA:140,0
DA:142,0
DA:152,0
DA:204,2
DA:205,2
DA:228,0
DA:229,0
DA:233,0
DA:234,0
DA:238,0
DA:239,0
DA:243,0
DA:246,0
DA:254,0
DA:257,0
DA:265,0
DA:266,0
DA:270,0
DA:272,0
DA:273,0
DA:274,0
DA:278,0
DA:280,0
DA:282,0
DA:283,0
DA:284,0
DA:286,0
DA:296,0
DA:298,0
DA:299,0
DA:300,0
DA:304,0
DA:305,0
DA:359,0
DA:360,0
DA:364,0
DA:365,0
DA:378,1
DA:448,0
DA:450,0
DA:451,0
DA:453,0
DA:454,0
DA:483,2
DA:489,4
DA:506,2
DA:706,2
DA:707,2
DA:710,2
DA:711,0
DA:713,2
DA:714,2
DA:715,2
DA:895,0
DA:896,0
DA:1181,0
DA:1183,0
DA:1185,0
DA:1186,0
LF:59
LH:12
end_of_record
SF:C:\Users\oussa\PROJET-CPP/Questionnaire.h
FN:18,_ZN13QuestionnaireD1Ev
FNDA:1,_ZN13QuestionnaireD1Ev
FNF:1
FNH:1
DA:17,3
DA:18,1
LF:2
LH:2
end_of_record
SF:C:\Users\oussa\PROJET-CPP/C:/msys64/ucrt64/include/c++/15.2.0/bits/move.h
DA:53,0
DA:139,0
DA:177,0
LF:3
LH:0
end_of_record
SF:C:\Users\oussa\PROJET-CPP/C:/msys64/ucrt64/include/c++/15.2.0/bits/stl_construct.h
FN:161,_ZSt8_DestroyISt10unique_ptrI8QuestionSt14default_deleteIS1_EEEvPT_
FNDA:0,_ZSt8_DestroyISt10unique_ptrI8QuestionSt14default_deleteIS1_EEEvPT_
FN:202,_ZSt8_DestroyIPSt10unique_ptrI8QuestionSt14default_deleteIS1_EEEvT_S6_
FNDA:0,_ZSt8_DestroyIPSt10unique_ptrI8QuestionSt14default_deleteIS1_EEEvT_S6_
FNF:2
FNH:0
DA:161,0
DA:166,0
DA:168,0
DA:202,0
DA:211,0
DA:212,0
DA:222,0
LF:7
LH:0
end_of_record
SF:C:\Users\oussa\PROJET-CPP/C:/msys64/ucrt64/include/c++/15.2.0/bits/alloc_traits.h
DA:614,0
DA:649,0
DA:712,0
DA:1045,1
DA:1046,1
LF:5
LH:2
end_of_record
SF:C:\Users\oussa\PROJET-CPP/C:/msys64/ucrt64/include/c++/15.2.0/bits/stl_iterator_base_types.h
DA:242,2
LF:1
LH:1
end_of_record
SF:C:\Users\oussa\PROJET-CPP/C:/msys64/ucrt64/include/c++/15.2.0/bits/stl_vector.h
FN:307,_ZNSt12_Vector_baseISt10unique_ptrI8QuestionSt14default_deleteIS1_EESaIS4_EE19_M_get_Tp_allocatorEv
FNDA:0,_ZNSt12_Vector_baseISt10unique_ptrI8QuestionSt14default_deleteIS1_EESaIS4_EE19_M_get_Tp_allocatorEv
FN:373,_ZNSt12_Vector_baseISt10unique_ptrI8QuestionSt14default_deleteIS1_EESaIS4_EED2Ev
FNDA:1,_ZNSt12_Vector_baseISt10unique_ptrI8QuestionSt14default_deleteIS1_EESaIS4_EED2Ev
FN:392,_ZNSt12_Vector_baseISt10unique_ptrI8QuestionSt14default_deleteIS1_EESaIS4_EE13_M_deallocateEPS4_y
FNDA:0,_ZNSt12_Vector_baseISt10unique_ptrI8QuestionSt14default_deleteIS1_EESaIS4_EE13_M_deallocateEPS4_y
FN:800,_ZNSt6vectorISt10unique_ptrI8QuestionSt14default_deleteIS1_EESaIS4_EED1Ev
FNDA:1,_ZNSt6vectorISt10unique_ptrI8QuestionSt14default_deleteIS1_EESaIS4_EED1Ev
FNF:4
FNH:2
DA:307,0
DA:308,0
DA:373,1
DA:375,1
DA:376,1
DA:377,1
DA:392,0
DA:395,0
DA:396,0
DA:397,0
DA:800,1
DA:802,1
DA:803,1
DA:805,1
LF:14
LH:8
end_of_record
SF:C:\Users\oussa\PROJET-CPP/EvaluationAdap.h
LF:0
LH:0
end_of_record
SF:C:\Users\oussa\PROJET-CPP/main.cpp
FN:11,main
FNDA:1,main
FNF:1
FNH:1
DA:11,1
DA:12,1
DA:13,1
DA:14,2
DA:17,1
DA:19,1
DA:20,1
DA:22,1
DA:23,1
DA:24,1
DA:25,1
DA:26,1
DA:27,1
DA:29,1
DA:31,1
DA:32,1
DA:33,1
DA:34,1
DA:35,1
DA:36,1
DA:37,1
DA:38,1
DA:40,1
DA:41,1
DA:42,1
DA:45,1
DA:46,1
DA:48,1
DA:50,1
DA:51,1
DA:52,1
DA:53,1
DA:54,1
DA:56,0
DA:57,0
DA:58,0
DA:59,0
DA:60,0
DA:61,0
DA:62,0
DA:63,0
DA:64,0
DA:65,0
DA:66,0
DA:67,0
DA:68,0
DA:69,0
DA:70,0
DA:71,0
DA:72,0
DA:75,1
DA:76,1
LF:52
LH:35
end_of_record
SF:C:\Users\oussa\PROJET-CPP/C:/msys64/ucrt64/include/c++/15.2.0/bits/stl_algobase.h
FN:234,_ZSt3minIyERKT_S2_S2_
FNDA:0,_ZSt3minIyERKT_S2_S2_
FNF:1
FNH:0
DA:234,0
DA:239,0
DA:240,0
DA:241,0
LF:4
LH:0
end_of_record
SF:C:\Users\oussa\PROJET-CPP/EvaluationSecChance.h
LF:0
LH:0
end_of_record
SF:C:\Users\oussa\PROJET-CPP/C:/msys64/ucrt64/include/c++/15.2.0/bits/basic_string.tcc
FN:143,_ZNSt7__cxx1112basic_stringIcSt11char_traitsIcESaIcEE9_M_createERyy
FNDA:0,_ZNSt7__cxx1112basic_stringIcSt11char_traitsIcESaIcEE9_M_createERyy
FN:227,_ZNSt7__cxx1112basic_stringIcSt11char_traitsIcESaIcEE12_M_constructIPKcEEvT_S8_St20forward_iterator_tag
FNDA:2,_ZNSt7__cxx1112basic_stringIcSt11char_traitsIcESaIcEE12_M_constructIPKcEEvT_S8_St20forward_iterator_tag
FN:245,_ZZNSt7__cxx1112basic_stringIcSt11char_traitsIcESaIcEE12_M_constructIPKcEEvT_S8_St20forward_iterator_tagEN6_GuardC1EPS4_
FNDA:2,_ZZNSt7__cxx1112basic_stringIcSt11char_traitsIcESaIcEE12_M_constructIPKcEEvT_S8_St20forward_iterator_tagEN6_GuardC1EPS4_
FN:248,_ZZNSt7__cxx1112basic_stringIcSt11char_traitsIcESaIcEE12_M_constructIPKcEEvT_S8_St20forward_iterator_tagEN6_GuardD1Ev
FNDA:2,_ZZNSt7__cxx1112basic_stringIcSt11char_traitsIcESaIcEE12_M_constructIPKcEEvT_S8_St20forward_iterator_tagEN6_GuardD1Ev
FNF:4
FNH:3
DA:143,0
DA:148,0
DA:149,0
DA:154,0
DA:156,0
DA:158,0
DA:159,0
DA:164,0
DA:227,2
DA:231,2
DA:233,2
DA:235,1
DA:236,1
DA:245,2
DA:248,2
DA:251,2
DA:253,2
DA:255,2
DA:257,2
DA:258,2
LF:20
LH:12
end_of_record
SF:C:\Users\oussa\PROJET-CPP/C:/msys64/ucrt64/include/c++/15.2.0/bits/ptr_traits.h
FN:134,_ZNSt19__ptr_traits_ptr_toIPKcS0_Lb0EE10pointer_toERS0_
FNDA:0,_ZNSt19__ptr_traits_ptr_toIPKcS0_Lb0EE10pointer_toERS0_
FN:134,_ZNSt19__ptr_traits_ptr_toIPccLb0EE10pointer_toERc
FNDA:0,_ZNSt19__ptr_traits_ptr_toIPccLb0EE10pointer_toERc
FNF:2
FNH:0
DA:134,0
DA:135,0
DA:134,0
DA:135,0
LF:4
LH:0
end_of_record
SF:C:\Users\oussa\PROJET-CPP/EvaluationTest.h
LF:0
LH:0
end_of_record
SF:C:\Users\oussa\PROJET-CPP/C:/msys64/ucrt64/include/c++/15.2.0/bits/new_allocator.h
FN:104,_ZNSt15__new_allocatorISt10unique_ptrI8QuestionSt14default_deleteIS1_EEED2Ev
FNDA:1,_ZNSt15__new_allocatorISt10unique_ptrI8QuestionSt14default_deleteIS1_EEED2Ev
FN:104,_ZNSt15__new_allocatorIcED2Ev
FNDA:0,_ZNSt15__new_allocatorIcED2Ev
FN:126,_ZNSt15__new_allocatorIcE8allocateEyPKv
FNDA:0,_ZNSt15__new_allocatorIcE8allocateEyPKv
FN:156,_ZNSt15__new_allocatorISt10unique_ptrI8QuestionSt14default_deleteIS1_EEE10deallocateEPS4_y
FNDA:0,_ZNSt15__new_allocatorISt10unique_ptrI8QuestionSt14default_deleteIS1_EEE10deallocateEPS4_y
FN:156,_ZNSt15__new_allocatorIcE10deallocateEPcy
FNDA:0,_ZNSt15__new_allocatorIcE10deallocateEPcy
FNF:5
FNH:1
DA:88,2
DA:92,2
DA:104,1
DA:104,0
DA:126,0
DA:134,0
DA:140,0
DA:151,0
DA:156,0
DA:172,0
DA:156,0
DA:172,0
DA:183,0
DA:233,0
LF:14
LH:3
end_of_record
SF:C:\Users\oussa\PROJET-CPP/C:/msys64/ucrt64/include/c++/15.2.0/bits/allocator.h
DA:168,2
DA:173,2
DA:189,2
LF:3
LH:3
end_of_record
TN:
SF:C:\Users\oussa\PROJET-CPP/C:/msys64/ucrt64/include/c++/15.2.0/bits/move.h
DA:53,0
DA:139,0
DA:177,0
LF:3
LH:0
end_of_record
SF:C:\Users\oussa\PROJET-CPP/C:/msys64/ucrt64/include/c++/15.2.0/bits/alloc_traits.h
DA:614,4
DA:649,0
DA:712,38
DA:726,15
LF:4
LH:3
end_of_record
SF:C:\Users\oussa\PROJET-CPP/C:/msys64/ucrt64/include/c++/15.2.0/ext/alloc_traits.h
DA:100,15
LF:1
LH:1
end_of_record
SF:C:\Users\oussa\PROJET-CPP/C:/msys64/ucrt64/include/c++/15.2.0/bits/new_allocator.h
FN:104,_ZNSt15__new_allocatorIcED2Ev
FNDA:0,_ZNSt15__new_allocatorIcED2Ev
FN:126,_ZNSt15__new_allocatorIcE8allocateEyPKv
FNDA:4,_ZNSt15__new_allocatorIcE8allocateEyPKv
FN:156,_ZNSt15__new_allocatorIcE10deallocateEPcy
FNDA:0,_ZNSt15__new_allocatorIcE10deallocateEPcy
FNF:3
FNH:1
DA:92,15
DA:104,0
DA:126,4
DA:134,4
DA:140,0
DA:151,4
DA:156,0
DA:172,0
DA:183,38
DA:233,42
LF:10
LH:6
end_of_record
SF:C:\Users\oussa\PROJET-CPP/C:/msys64/ucrt64/include/c++/15.2.0/bits/allocator.h
DA:173,15
DA:189,15
LF:2
LH:2
end_of_record
SF:C:\Users\oussa\PROJET-CPP/C:/msys64/ucrt64/include/c++/15.2.0/bits/stl_algobase.h
FN:234,_ZSt3minIyERKT_S2_S2_
FNDA:0,_ZSt3minIyERKT_S2_S2_
FNF:1
FNH:0
DA:234,0
DA:239,0
DA:240,0
DA:241,0
LF:4
LH:0
end_of_record
SF:C:\Users\oussa\PROJET-CPP/C:/msys64/ucrt64/include/c++/15.2.0/bits/basic_string.tcc
FN:143,_ZNSt7__cxx1112basic_stringIcSt11char_traitsIcESaIcEE9_M_createERyy
FNDA:4,_ZNSt7__cxx1112basic_stringIcSt11char_traitsIcESaIcEE9_M_createERyy
FN:286,_ZNSt7__cxx1112basic_stringIcSt11char_traitsIcESaIcEE12_M_constructILb1EEEvPKcy
FNDA:15,_ZNSt7__cxx1112basic_stringIcSt11char_traitsIcESaIcEE12_M_constructILb1EEEvPKcy
FNF:2
FNH:2
DA:143,4
DA:148,4
DA:149,0
DA:154,4
DA:156,0
DA:158,0
DA:159,0
DA:164,4
DA:286,15
DA:289,15
DA:291,3
DA:292,3
DA:298,15
DA:300,15
DA:303,15
LF:15
LH:11
end_of_record
SF:C:\Users\oussa\PROJET-CPP/C:/msys64/ucrt64/include/c++/15.2.0/bits/ptr_traits.h
FN:134,_ZNSt19__ptr_traits_ptr_toIPKcS0_Lb0EE10pointer_toERS0_
FNDA:0,_ZNSt19__ptr_traits_ptr_toIPKcS0_Lb0EE10pointer_toERS0_
FN:134,_ZNSt19__ptr_traits_ptr_toIPccLb0EE10pointer_toERc
FNDA:0,_ZNSt19__ptr_traits_ptr_toIPccLb0EE10pointer_toERc
FNF:2
FNH:0
DA:134,0
DA:135,0
DA:134,0
DA:135,0
LF:4
LH:0
end_of_record
SF:C:\Users\oussa\PROJET-CPP/Question.cpp
FN:8,_ZN8QuestionC2ERKNSt7__cxx1112basic_stringIcSt11char_traitsIcESaIcEEES7_
FNDA:3,_ZN8QuestionC2ERKNSt7__cxx1112basic_stringIcSt11char_traitsIcESaIcEEES7_
FN:10,_ZNK8Question9get_titreB5cxx11Ev
FNDA:0,_ZNK8Question9get_titreB5cxx11Ev
FN:13,_ZNK8Question8get_textB5cxx11Ev
FNDA:0,_ZNK8Question8get_textB5cxx11Ev
FN:17,_ZNK8Question16afficherquestionEv
FNDA:1,_ZNK8Question16afficherquestionEv
FNF:4
FNH:2
DA:8,3
DA:10,0
DA:11,0
DA:13,0
DA:14,0
DA:17,1
DA:18,1
DA:19,1
DA:20,1
LF:9
LH:5
end_of_record
SF:C:\Users\oussa\PROJET-CPP/C:/msys64/ucrt64/include/c++/15.2.0/bits/char_traits.h
FN:345,_ZNSt11char_traitsIcE6assignERcRKc
FNDA:0,_ZNSt11char_traitsIcE6assignERcRKc
FN:421,_ZNSt11char_traitsIcE4copyEPcPKcy
FNDA:19,_ZNSt11char_traitsIcE4copyEPcPKcy
FNF:2
FNH:1
DA:345,0
DA:352,0
DA:353,0
DA:421,19
DA:423,19
DA:424,1
DA:429,18
LF:7
LH:4
end_of_record
SF:C:\Users\oussa\PROJET-CPP/C:/msys64/ucrt64/include/c++/15.2.0/bits/basic_string.h
FN:140,_ZNSt7__cxx1112basic_stringIcSt11char_traitsIcESaIcEE11_S_allocateERS3_y
FNDA:4,_ZNSt7__cxx1112basic_stringIcSt11char_traitsIcESaIcEE11_S_allocateERS3_y
FN:208,_ZNSt7__cxx1112basic_stringIcSt11char_traitsIcESaIcEE12_Alloc_hiderC1EPcOS3_
FNDA:0,_ZNSt7__cxx1112basic_stringIcSt11char_traitsIcESaIcEE12_Alloc_hiderC1EPcOS3_
FN:228,_ZNSt7__cxx1112basic_stringIcSt11char_traitsIcESaIcEE7_M_dataEPc
FNDA:7,_ZNSt7__cxx1112basic_stringIcSt11char_traitsIcESaIcEE7_M_dataEPc
FN:233,_ZNSt7__cxx1112basic_stringIcSt11char_traitsIcESaIcEE9_M_lengthEy
FNDA:0,_ZNSt7__cxx1112basic_stringIcSt11char_traitsIcESaIcEE9_M_lengthEy
FN:238,_ZNKSt7__cxx1112basic_stringIcSt11char_traitsIcESaIcEE7_M_dataEv
FNDA:0,_ZNKSt7__cxx1112basic_stringIcSt11char_traitsIcESaIcEE7_M_dataEv
FN:243,_ZNSt7__cxx1112basic_stringIcSt11char_traitsIcESaIcEE13_M_local_dataEv
FNDA:0,_ZNSt7__cxx1112basic_stringIcSt11char_traitsIcESaIcEE13_M_local_dataEv
FN:254,_ZNKSt7__cxx1112basic_stringIcSt11char_traitsIcESaIcEE13_M_local_dataEv
FNDA:0,_ZNKSt7__cxx1112basic_stringIcSt11char_traitsIcESaIcEE13_M_local_dataEv
FN:265,_ZNSt7__cxx1112basic_stringIcSt11char_traitsIcESaIcEE11_M_capacityEy
FNDA:4,_ZNSt7__cxx1112basic_stringIcSt11char_traitsIcESaIcEE11_M_capacityEy
FN:278,_ZNKSt7__cxx1112basic_stringIcSt11char_traitsIcESaIcEE11_M_is_localEv
FNDA:0,_ZNKSt7__cxx1112basic_stringIcSt11char_traitsIcESaIcEE11_M_is_localEv
FN:296,_ZNSt7__cxx1112basic_stringIcSt11char_traitsIcESaIcEE10_M_disposeEv
FNDA:0,_ZNSt7__cxx1112basic_stringIcSt11char_traitsIcESaIcEE10_M_disposeEv
FN:304,_ZNSt7__cxx1112basic_stringIcSt11char_traitsIcESaIcEE10_M_destroyEy
FNDA:0,_ZNSt7__cxx1112basic_stringIcSt11char_traitsIcESaIcEE10_M_destroyEy
FN:359,_ZNSt7__cxx1112basic_stringIcSt11char_traitsIcESaIcEE16_M_get_allocatorEv
FNDA:0,_ZNSt7__cxx1112basic_stringIcSt11char_traitsIcESaIcEE16_M_get_allocatorEv
FN:364,_ZNKSt7__cxx1112basic_stringIcSt11char_traitsIcESaIcEE16_M_get_allocatorEv
FNDA:53,_ZNKSt7__cxx1112basic_stringIcSt11char_traitsIcESaIcEE16_M_get_allocatorEv
FN:448,_ZNSt7__cxx1112basic_stringIcSt11char_traitsIcESaIcEE7_S_copyEPcPKcy
FNDA:17,_ZNSt7__cxx1112basic_stringIcSt11char_traitsIcESaIcEE7_S_copyEPcPKcy
FN:613,_ZNSt7__cxx1112basic_stringIcSt11char_traitsIcESaIcEEC1ERKS4_
FNDA:15,_ZNSt7__cxx1112basic_stringIcSt11char_traitsIcESaIcEEC1ERKS4_
FN:895,_ZNSt7__cxx1112basic_stringIcSt11char_traitsIcESaIcEED1Ev
FNDA:0,_ZNSt7__cxx1112basic_stringIcSt11char_traitsIcESaIcEED1Ev
FN:1163,_ZNKSt7__cxx1112basic_stringIcSt11char_traitsIcESaIcEE4sizeEv
FNDA:34,_ZNKSt7__cxx1112basic_stringIcSt11char_traitsIcESaIcEE4sizeEv
FN:1175,_ZNKSt7__cxx1112basic_stringIcSt11char_traitsIcESaIcEE6lengthEv
FNDA:21,_ZNKSt7__cxx1112basic_stringIcSt11char_traitsIcESaIcEE6lengthEv
FN:1181,_ZNKSt7__cxx1112basic_stringIcSt11char_traitsIcESaIcEE8max_sizeEv
FNDA:38,_ZNKSt7__cxx1112basic_stringIcSt11char_traitsIcESaIcEE8max_sizeEv
FNF:19
FNH:9
DA:140,4
DA:142,4
DA:152,4
DA:208,0
DA:209,0
DA:228,7
DA:229,7
DA:233,0
DA:234,0
DA:238,0
DA:239,0
DA:243,0
DA:246,0
DA:254,0
DA:257,0
DA:265,4
DA:266,4
DA:278,0
DA:280,0
DA:282,0
DA:283,0
DA:284,0
DA:286,0
DA:296,0
DA:298,0
DA:299,0
DA:300,0
DA:304,0
DA:305,0
DA:359,0
DA:360,0
DA:364,53
DA:365,53
DA:378,12
DA:448,17
DA:450,17
DA:451,1
DA:453,16
DA:454,17
DA:613,15
DA:614,15
DA:615,15
DA:617,15
DA:618,15
DA:895,0
DA:896,0
DA:1163,34
DA:1165,34
DA:1166,34
DA:1167,0
DA:1168,34
DA:1175,21
DA:1176,21
DA:1181,38
DA:1183,38
DA:1185,38
DA:1186,38
LF:57
LH:30
end_of_record
TN:
SF:C:\Users\oussa\PROJET-CPP/C:/msys64/ucrt64/include/c++/15.2.0/bits/basic_string.tcc
FN:143,_ZNSt7__cxx1112basic_stringIcSt11char_traitsIcESaIcEE9_M_createERyy
FNDA:0,_ZNSt7__cxx1112basic_stringIcSt11char_traitsIcESaIcEE9_M_createERyy
FN:286,_ZNSt7__cxx1112basic_stringIcSt11char_traitsIcESaIcEE12_M_constructILb1EEEvPKcy
FNDA:0,_ZNSt7__cxx1112basic_stringIcSt11char_traitsIcESaIcEE12_M_constructILb1EEEvPKcy
FNF:2
FNH:0
DA:143,0
DA:148,0
DA:149,0
DA:154,0
DA:156,0
DA:158,0
DA:159,0
DA:164,0
DA:286,0
DA:289,0
DA:291,0
DA:292,0
DA:298,0
DA:300,0
DA:303,0
LF:15
LH:0
end_of_record
SF:C:\Users\oussa\PROJET-CPP/C:/msys64/ucrt64/include/c++/15.2.0/bits/stl_algobase.h
FN:234,_ZSt3minIyERKT_S2_S2_
FNDA:0,_ZSt3minIyERKT_S2_S2_
FN:258,_ZSt3maxIyERKT_S2_S2_
FNDA:0,_ZSt3maxIyERKT_S2_S2_
FNF:2
FNH:0
DA:234,0
DA:239,0
DA:240,0
DA:241,0
DA:258,0
DA:263,0
DA:264,0
DA:265,0
LF:8
LH:0
end_of_record
SF:C:\Users\oussa\PROJET-CPP/C:/msys64/ucrt64/include/c++/15.2.0/bits/ptr_traits.h
FN:134,_ZNSt19__ptr_traits_ptr_toIPKcS0_Lb0EE10pointer_toERS0_
FNDA:0,_ZNSt19__ptr_traits_ptr_toIPKcS0_Lb0EE10pointer_toERS0_
FN:134,_ZNSt19__ptr_traits_ptr_toIPccLb0EE10pointer_toERc
FNDA:0,_ZNSt19__ptr_traits_ptr_toIPccLb0EE10pointer_toERc
FNF:2
FNH:0
DA:134,0
DA:135,0
DA:134,0
DA:135,0
DA:211,6
LF:5
LH:1
end_of_record
SF:C:\Users\oussa\PROJET-CPP/Questionnaire.cpp
FN:7,_ZN13QuestionnaireC2ERKNSt7__cxx1112basic_stringIcSt11char_traitsIcESaIcEEE
FNDA:1,_ZN13QuestionnaireC2ERKNSt7__cxx1112basic_stringIcSt11char_traitsIcESaIcEEE
FN:9,_ZN13Questionnaire15ajouterQuestionESt10unique_ptrI8QuestionSt14default_deleteIS1_EE
FNDA:0,_ZN13Questionnaire15ajouterQuestionESt10unique_ptrI8QuestionSt14default_deleteIS1_EE
FN:12,_ZNK13Questionnaire6tailleEv
FNDA:2,_ZNK13Questionnaire6tailleEv
FN:15,_ZNK13Questionnaire12getQuestionsEv
FNDA:2,_ZNK13Questionnaire12getQuestionsEv
FN:18,_ZNK13Questionnaire11sauvegarderERKNSt7__cxx1112basic_stringIcSt11char_traitsIcESaIcEEE
FNDA:0,_ZNK13Questionnaire11sauvegarderERKNSt7__cxx1112basic_stringIcSt11char_traitsIcESaIcEEE
FN:36,_ZN13Questionnaire20lectureDepuisFichierERKNSt7__cxx1112basic_stringIcSt11char_traitsIcESaIcEEE
FNDA:1,_ZN13Questionnaire20lectureDepuisFichierERKNSt7__cxx1112basic_stringIcSt11char_traitsIcESaIcEEE
FNF:6
FNH:4
DA:7,1
DA:8,1
DA:9,0
DA:10,0
DA:11,0
DA:12,2
DA:13,2
DA:15,2
DA:16,2
DA:18,0
DA:19,0
DA:21,0
DA:22,0
DA:23,0
DA:26,0
DA:27,0
DA:29,0
DA:30,0
DA:33,0
DA:34,0
DA:36,1
DA:37,1
DA:39,1
DA:40,1
DA:41,0
DA:42,0
DA:46,1
DA:47,0
DA:48,0
DA:53,1
DA:54,1
DA:56,4
DA:57,3
DA:58,3
DA:61,3
DA:62,1
DA:63,1
DA:64,1
DA:65,1
DA:67,1
DA:68,2
DA:70,1
DA:73,2
DA:74,1
DA:77,1
DA:78,1
DA:79,1
DA:80,1
DA:82,1
DA:83,2
DA:85,1
DA:88,1
DA:89,1
DA:92,1
DA:93,1
DA:94,1
DA:95,1
DA:97,1
DA:98,4
DA:99,3
DA:100,3
DA:101,3
DA:102,3
DA:104,1
DA:105,1
DA:107,1
DA:108,2
DA:110,1
DA:113,0
DA:114,0
DA:116,3
DA:117,1
LF:72
LH:52
end_of_record
SF:C:\Users\oussa\PROJET-CPP/C:/msys64/ucrt64/include/c++/15.2.0/bits/vector.tcc
FN:111,_ZNSt6vectorISt10unique_ptrI8QuestionSt14default_deleteIS1_EESaIS4_EE12emplace_backIJS4_EEERS4_DpOT_
FNDA:3,_ZNSt6vectorISt10unique_ptrI8QuestionSt14default_deleteIS1_EESaIS4_EE12emplace_backIJS4_EEERS4_DpOT_
FN:557,_ZNSt6vectorISt10unique_ptrI8QuestionSt14default_deleteIS1_EESaIS4_EE17_M_realloc_appendIJS4_EEEvDpOT_
FNDA:3,_ZNSt6vectorISt10unique_ptrI8QuestionSt14default_deleteIS1_EESaIS4_EE17_M_realloc_appendIJS4_EEEvDpOT_
FN:557,_ZNSt6vectorINSt7__cxx1112basic_stringIcSt11char_traitsIcESaIcEEESaIS5_EE17_M_realloc_appendIJRKS5_EEEvDpOT_
FNDA:3,_ZNSt6vectorINSt7__cxx1112basic_stringIcSt11char_traitsIcESaIcEEESaIS5_EE17_M_realloc_appendIJRKS5_EEEvDpOT_
FNF:3
FNH:3
DA:111,3
DA:114,3
DA:117,0
DA:119,0
DA:123,3
DA:125,3
DA:557,3
DA:566,3
DA:567,3
DA:568,0
DA:569,3
DA:570,3
DA:571,3
DA:572,3
DA:573,3
DA:576,3
DA:586,3
DA:587,3
DA:599,3
DA:600,3
DA:601,3
DA:638,3
DA:639,3
DA:640,3
DA:644,3
DA:645,3
DA:646,3
DA:647,3
DA:557,3
DA:566,3
DA:567,3
DA:568,0
DA:569,3
DA:570,3
DA:571,3
DA:572,3
DA:573,3
DA:576,3
DA:586,3
DA:587,3
DA:599,3
DA:600,3
DA:601,3
DA:638,3
DA:639,3
DA:640,3
DA:644,3
DA:645,3
DA:646,3
DA:647,3
LF:50
LH:46
end_of_record
SF:C:\Users\oussa\PROJET-CPP/C:/msys64/ucrt64/include/c++/15.2.0/bits/new_allocator.h
FN:104,_ZNSt15__new_allocatorINSt7__cxx1112basic_stringIcSt11char_traitsIcESaIcEEEED2Ev
FNDA:0,_ZNSt15__new_allocatorINSt7__cxx1112basic_stringIcSt11char_traitsIcESaIcEEEED2Ev
FN:104,_ZNSt15__new_allocatorIcED2Ev
FNDA:0,_ZNSt15__new_allocatorIcED2Ev
FN:126,_ZNSt15__new_allocatorISt10unique_ptrI8QuestionSt14default_deleteIS1_EEE8allocateEyPKv
FNDA:3,_ZNSt15__new_allocatorISt10unique_ptrI8QuestionSt14default_deleteIS1_EEE8allocateEyPKv
FN:126,_ZNSt15__new_allocatorIcE8allocateEyPKv
FNDA:0,_ZNSt15__new_allocatorIcE8allocateEyPKv
FN:126,_ZNSt15__new_allocatorINSt7__cxx1112basic_stringIcSt11char_traitsIcESaIcEEEE8allocateEyPKv
FNDA:0,_ZNSt15__new_allocatorINSt7__cxx1112basic_stringIcSt11char_traitsIcESaIcEEEE8allocateEyPKv
FN:156,_ZNSt15__new_allocatorIcE10deallocateEPcy
FNDA:0,_ZNSt15__new_allocatorIcE10deallocateEPcy
FN:156,_ZNSt15__new_allocatorINSt7__cxx1112basic_stringIcSt11char_traitsIcESaIcEEEE10deallocateEPS5_y
FNDA:0,_ZNSt15__new_allocatorINSt7__cxx1112basic_stringIcSt11char_traitsIcESaIcEEEE10deallocateEPS5_y
FN:156,_ZNSt15__new_allocatorISt10unique_ptrI8QuestionSt14default_deleteIS1_EEE10deallocateEPS4_y
FNDA:3,_ZNSt15__new_allocatorISt10unique_ptrI8QuestionSt14default_deleteIS1_EEE10deallocateEPS4_y
FNF:8
FNH:2
DA:88,2
DA:92,0
DA:104,0
DA:104,0
DA:126,3
DA:134,3
DA:138,0
DA:139,0
DA:140,0
DA:151,3
DA:126,0
DA:134,0
DA:140,0
DA:151,0
DA:126,0
DA:134,0
DA:138,0
DA:139,0
DA:140,0
DA:151,0
DA:156,0
DA:172,0
DA:156,0
DA:172,0
DA:156,3
DA:172,3
DA:183,12
DA:191,24
DA:198,6
DA:233,15
LF:30
LH:10
end_of_record
SF:C:\Users\oussa\PROJET-CPP/C:/msys64/ucrt64/include/c++/15.2.0/bits/allocator.h
DA:168,2
DA:173,0
DA:189,0
LF:3
LH:1
end_of_record
SF:C:\Users\oussa\PROJET-CPP/C:/msys64/ucrt64/include/c++/15.2.0/ext/alloc_traits.h
DA:100,0
LF:1
LH:0
end_of_record
SF:C:\Users\oussa\PROJET-CPP/C:/msys64/ucrt64/include/c++/15.2.0/bits/alloc_traits.h
DA:614,3
DA:649,3
DA:674,12
DA:680,12
DA:700,6
DA:712,12
DA:726,0
DA:1045,0
DA:1046,0
LF:9
LH:6
end_of_record
SF:C:\Users\oussa\PROJET-CPP/C:/msys64/ucrt64/include/c++/15.2.0/bits/move.h
DA:53,21
DA:73,72
DA:139,21
DA:177,0
LF:4
LH:3
end_of_record
SF:C:\Users\oussa\PROJET-CPP/C:/msys64/ucrt64/include/c++/15.2.0/bits/stl_construct.h
FN:161,_ZSt8_DestroyINSt7__cxx1112basic_stringIcSt11char_traitsIcESaIcEEEEvPT_
FNDA:0,_ZSt8_DestroyINSt7__cxx1112basic_stringIcSt11char_traitsIcESaIcEEEEvPT_
FN:161,_ZSt8_DestroyISt10unique_ptrI8QuestionSt14default_deleteIS1_EEEvPT_
FNDA:3,_ZSt8_DestroyISt10unique_ptrI8QuestionSt14default_deleteIS1_EEEvPT_
FN:202,_ZSt8_DestroyIPNSt7__cxx1112basic_stringIcSt11char_traitsIcESaIcEEEEvT_S7_
FNDA:0,_ZSt8_DestroyIPNSt7__cxx1112basic_stringIcSt11char_traitsIcESaIcEEEEvT_S7_
FN:202,_ZSt8_DestroyIPSt10unique_ptrI8QuestionSt14default_deleteIS1_EEEvT_S6_
FNDA:1,_ZSt8_DestroyIPSt10unique_ptrI8QuestionSt14default_deleteIS1_EEEvT_S6_
FNF:4
FNH:2
DA:161,0
DA:166,0
DA:168,0
DA:161,3
DA:166,3
DA:168,3
DA:202,0
DA:211,0
DA:212,0
DA:222,0
DA:202,1
DA:211,4
DA:212,3
DA:222,1
LF:14
LH:7
end_of_record
SF:C:\Users\oussa\PROJET-CPP/C:/msys64/ucrt64/include/c++/15.2.0/bits/stl_vector.h
FN:105,_ZNSt12_Vector_baseISt10unique_ptrI8QuestionSt14default_deleteIS1_EESaIS4_EE17_Vector_impl_dataC2Ev
FNDA:1,_ZNSt12_Vector_baseISt10unique_ptrI8QuestionSt14default_deleteIS1_EESaIS4_EE17_Vector_impl_dataC2Ev
FN:105,_ZNSt12_Vector_baseINSt7__cxx1112basic_stringIcSt11char_traitsIcESaIcEEESaIS5_EE17_Vector_impl_dataC2Ev
FNDA:0,_ZNSt12_Vector_baseINSt7__cxx1112basic_stringIcSt11char_traitsIcESaIcEEESaIS5_EE17_Vector_impl_dataC2Ev
FN:143,_ZNSt12_Vector_baseISt10unique_ptrI8QuestionSt14default_deleteIS1_EESaIS4_EE12_Vector_implC1Ev
FNDA:1,_ZNSt12_Vector_baseISt10unique_ptrI8QuestionSt14default_deleteIS1_EESaIS4_EE12_Vector_implC1Ev
FN:143,_ZNSt12_Vector_baseINSt7__cxx1112basic_stringIcSt11char_traitsIcESaIcEEESaIS5_EE12_Vector_implC1Ev
FNDA:1,_ZNSt12_Vector_baseINSt7__cxx1112basic_stringIcSt11char_traitsIcESaIcEEESaIS5_EE12_Vector_implC1Ev
FN:307,_ZNSt12_Vector_baseINSt7__cxx1112basic_stringIcSt11char_traitsIcESaIcEEESaIS5_EE19_M_get_Tp_allocatorEv
FNDA:0,_ZNSt12_Vector_baseINSt7__cxx1112basic_stringIcSt11char_traitsIcESaIcEEESaIS5_EE19_M_get_Tp_allocatorEv
FN:307,_ZNSt12_Vector_baseISt10unique_ptrI8QuestionSt14default_deleteIS1_EESaIS4_EE19_M_get_Tp_allocatorEv
FNDA:4,_ZNSt12_Vector_baseISt10unique_ptrI8QuestionSt14default_deleteIS1_EESaIS4_EE19_M_get_Tp_allocatorEv
FN:312,_ZNKSt12_Vector_baseISt10unique_ptrI8QuestionSt14default_deleteIS1_EESaIS4_EE19_M_get_Tp_allocatorEv
FNDA:6,_ZNKSt12_Vector_baseISt10unique_ptrI8QuestionSt14default_deleteIS1_EESaIS4_EE19_M_get_Tp_allocatorEv
FN:312,_ZNKSt12_Vector_baseINSt7__cxx1112basic_stringIcSt11char_traitsIcESaIcEEESaIS5_EE19_M_get_Tp_allocatorEv
FNDA:0,_ZNKSt12_Vector_baseINSt7__cxx1112basic_stringIcSt11char_traitsIcESaIcEEESaIS5_EE19_M_get_Tp_allocatorEv
FN:321,_ZNSt12_Vector_baseISt10unique_ptrI8QuestionSt14default_deleteIS1_EESaIS4_EEC2Ev
FNDA:1,_ZNSt12_Vector_baseISt10unique_ptrI8QuestionSt14default_deleteIS1_EESaIS4_EEC2Ev
FN:321,_ZNSt12_Vector_baseINSt7__cxx1112basic_stringIcSt11char_traitsIcESaIcEEESaIS5_EEC2Ev
FNDA:1,_ZNSt12_Vector_baseINSt7__cxx1112basic_stringIcSt11char_traitsIcESaIcEEESaIS5_EEC2Ev
FN:373,_ZNSt12_Vector_baseINSt7__cxx1112basic_stringIcSt11char_traitsIcESaIcEEESaIS5_EED2Ev
FNDA:0,_ZNSt12_Vector_baseINSt7__cxx1112basic_stringIcSt11char_traitsIcESaIcEEESaIS5_EED2Ev
FN:384,_ZNSt12_Vector_baseISt10unique_ptrI8QuestionSt14default_deleteIS1_EESaIS4_EE11_M_allocateEy
FNDA:3,_ZNSt12_Vector_baseISt10unique_ptrI8QuestionSt14default_deleteIS1_EESaIS4_EE11_M_allocateEy
FN:384,_ZNSt12_Vector_baseINSt7__cxx1112basic_stringIcSt11char_traitsIcESaIcEEESaIS5_EE11_M_allocateEy
FNDA:0,_ZNSt12_Vector_baseINSt7__cxx1112basic_stringIcSt11char_traitsIcESaIcEEESaIS5_EE11_M_allocateEy
FN:392,_ZNSt12_Vector_baseISt10unique_ptrI8QuestionSt14default_deleteIS1_EESaIS4_EE13_M_deallocateEPS4_y
FNDA:3,_ZNSt12_Vector_baseISt10unique_ptrI8QuestionSt14default_deleteIS1_EESaIS4_EE13_M_deallocateEPS4_y
FN:392,_ZNSt12_Vector_baseINSt7__cxx1112basic_stringIcSt11char_traitsIcESaIcEEESaIS5_EE13_M_deallocateEPS5_y
FNDA:0,_ZNSt12_Vector_baseINSt7__cxx1112basic_stringIcSt11char_traitsIcESaIcEEESaIS5_EE13_M_deallocateEPS5_y
FN:534,_ZNSt6vectorISt10unique_ptrI8QuestionSt14default_deleteIS1_EESaIS4_EE11_S_relocateEPS4_S7_S7_RS5_
FNDA:3,_ZNSt6vectorISt10unique_ptrI8QuestionSt14default_deleteIS1_EESaIS4_EE11_S_relocateEPS4_S7_S7_RS5_
FN:534,_ZNSt6vectorINSt7__cxx1112basic_stringIcSt11char_traitsIcESaIcEEESaIS5_EE11_S_relocateEPS5_S8_S8_RS6_
FNDA:3,_ZNSt6vectorINSt7__cxx1112basic_stringIcSt11char_traitsIcESaIcEEESaIS5_EE11_S_relocateEPS5_S8_S8_RS6_
FN:561,_ZNSt6vectorINSt7__cxx1112basic_stringIcSt11char_traitsIcESaIcEEESaIS5_EEC1Ev
FNDA:1,_ZNSt6vectorINSt7__cxx1112basic_stringIcSt11char_traitsIcESaIcEEESaIS5_EEC1Ev
FN:561,_ZNSt6vectorISt10unique_ptrI8QuestionSt14default_deleteIS1_EESaIS4_EEC1Ev
FNDA:1,_ZNSt6vectorISt10unique_ptrI8QuestionSt14default_deleteIS1_EESaIS4_EEC1Ev
FN:800,_ZNSt6vectorINSt7__cxx1112basic_stringIcSt11char_traitsIcESaIcEEESaIS5_EED1Ev
FNDA:0,_ZNSt6vectorINSt7__cxx1112basic_stringIcSt11char_traitsIcESaIcEEESaIS5_EED1Ev
FN:998,_ZNSt6vectorINSt7__cxx1112basic_stringIcSt11char_traitsIcESaIcEEESaIS5_EE5beginEv
FNDA:3,_ZNSt6vectorINSt7__cxx1112basic_stringIcSt11char_traitsIcESaIcEEESaIS5_EE5beginEv
FN:998,_ZNSt6vectorISt10unique_ptrI8QuestionSt14default_deleteIS1_EESaIS4_EE5beginEv
FNDA:3,_ZNSt6vectorISt10unique_ptrI8QuestionSt14default_deleteIS1_EESaIS4_EE5beginEv
FN:1008,_ZNKSt6vectorISt10unique_ptrI8QuestionSt14default_deleteIS1_EESaIS4_EE5beginEv
FNDA:0,_ZNKSt6vectorISt10unique_ptrI8QuestionSt14default_deleteIS1_EESaIS4_EE5beginEv
FN:1018,_ZNSt6vectorINSt7__cxx1112basic_stringIcSt11char_traitsIcESaIcEEESaIS5_EE3endEv
FNDA:3,_ZNSt6vectorINSt7__cxx1112basic_stringIcSt11char_traitsIcESaIcEEESaIS5_EE3endEv
FN:1018,_ZNSt6vectorISt10unique_ptrI8QuestionSt14default_deleteIS1_EESaIS4_EE3endEv
FNDA:6,_ZNSt6vectorISt10unique_ptrI8QuestionSt14default_deleteIS1_EESaIS4_EE3endEv
FN:1028,_ZNKSt6vectorISt10unique_ptrI8QuestionSt14default_deleteIS1_EESaIS4_EE3endEv
FNDA:0,_ZNKSt6vectorISt10unique_ptrI8QuestionSt14default_deleteIS1_EESaIS4_EE3endEv
FN:1117,_ZNKSt6vectorISt10unique_ptrI8QuestionSt14default_deleteIS1_EESaIS4_EE4sizeEv
FNDA:0,_ZNKSt6vectorISt10unique_ptrI8QuestionSt14default_deleteIS1_EESaIS4_EE4sizeEv
FN:1117,_ZNKSt6vectorINSt7__cxx1112basic_stringIcSt11char_traitsIcESaIcEEESaIS5_EE4sizeEv
FNDA:0,_ZNKSt6vectorINSt7__cxx1112basic_stringIcSt11char_traitsIcESaIcEEESaIS5_EE4sizeEv
FN:1128,_ZNKSt6vectorINSt7__cxx1112basic_stringIcSt11char_traitsIcESaIcEEESaIS5_EE8max_sizeEv
FNDA:6,_ZNKSt6vectorINSt7__cxx1112basic_stringIcSt11char_traitsIcESaIcEEESaIS5_EE8max_sizeEv
FN:1128,_ZNKSt6vectorISt10unique_ptrI8QuestionSt14default_deleteIS1_EESaIS4_EE8max_sizeEv
FNDA:6,_ZNKSt6vectorISt10unique_ptrI8QuestionSt14default_deleteIS1_EESaIS4_EE8max_sizeEv
FN:1223,_ZNKSt6vectorISt10unique_ptrI8QuestionSt14default_deleteIS1_EESaIS4_EE5emptyEv
FNDA:3,_ZNKSt6vectorISt10unique_ptrI8QuestionSt14default_deleteIS1_EESaIS4_EE5emptyEv
FN:1368,_ZNSt6vectorISt10unique_ptrI8QuestionSt14default_deleteIS1_EESaIS4_EE4backEv
FNDA:3,_ZNSt6vectorISt10unique_ptrI8QuestionSt14default_deleteIS1_EESaIS4_EE4backEv
FN:1416,_ZNSt6vectorINSt7__cxx1112basic_stringIcSt11char_traitsIcESaIcEEESaIS5_EE9push_backERKS5_
FNDA:3,_ZNSt6vectorINSt7__cxx1112basic_stringIcSt11char_traitsIcESaIcEEESaIS5_EE9push_backERKS5_
FN:1433,_ZNSt6vectorISt10unique_ptrI8QuestionSt14default_deleteIS1_EESaIS4_EE9push_backEOS4_
FNDA:3,_ZNSt6vectorISt10unique_ptrI8QuestionSt14default_deleteIS1_EESaIS4_EE9push_backEOS4_
FN:1863,_ZNSt6vectorISt10unique_ptrI8QuestionSt14default_deleteIS1_EESaIS4_EE5clearEv
FNDA:1,_ZNSt6vectorISt10unique_ptrI8QuestionSt14default_deleteIS1_EESaIS4_EE5clearEv
FN:1875,_ZNSt6vectorINSt7__cxx1112basic_stringIcSt11char_traitsIcESaIcEEESaIS5_EE12_Guard_allocC1EPS5_yRSt12_Vector_baseIS5_S6_E
FNDA:3,_ZNSt6vectorINSt7__cxx1112basic_stringIcSt11char_traitsIcESaIcEEESaIS5_EE12_Guard_allocC1EPS5_yRSt12_Vector_baseIS5_S6_E
FN:1875,_ZNSt6vectorISt10unique_ptrI8QuestionSt14default_deleteIS1_EESaIS4_EE12_Guard_allocC1EPS4_yRSt12_Vector_baseIS4_S5_E
FNDA:3,_ZNSt6vectorISt10unique_ptrI8QuestionSt14default_deleteIS1_EESaIS4_EE12_Guard_allocC1EPS4_yRSt12_Vector_baseIS4_S5_E
FN:1880,_ZNSt6vectorINSt7__cxx1112basic_stringIcSt11char_traitsIcESaIcEEESaIS5_EE12_Guard_allocD1Ev
FNDA:3,_ZNSt6vectorINSt7__cxx1112basic_stringIcSt11char_traitsIcESaIcEEESaIS5_EE12_Guard_allocD1Ev
FN:1880,_ZNSt6vectorISt10unique_ptrI8QuestionSt14default_deleteIS1_EESaIS4_EE12_Guard_allocD1Ev
FNDA:3,_ZNSt6vectorISt10unique_ptrI8QuestionSt14default_deleteIS1_EESaIS4_EE12_Guard_allocD1Ev
FN:2197,_ZNKSt6vectorINSt7__cxx1112basic_stringIcSt11char_traitsIcESaIcEEESaIS5_EE12_M_check_lenEyPKc
FNDA:3,_ZNKSt6vectorINSt7__cxx1112basic_stringIcSt11char_traitsIcESaIcEEESaIS5_EE12_M_check_lenEyPKc
FN:2197,_ZNKSt6vectorISt10unique_ptrI8QuestionSt14default_deleteIS1_EESaIS4_EE12_M_check_lenEyPKc
FNDA:3,_ZNKSt6vectorISt10unique_ptrI8QuestionSt14default_deleteIS1_EESaIS4_EE12_M_check_lenEyPKc
FN:2217,_ZNSt6vectorINSt7__cxx1112basic_stringIcSt11char_traitsIcESaIcEEESaIS5_EE11_S_max_sizeERKS6_
FNDA:6,_ZNSt6vectorINSt7__cxx1112basic_stringIcSt11char_traitsIcESaIcEEESaIS5_EE11_S_max_sizeERKS6_
FN:2217,_ZNSt6vectorISt10unique_ptrI8QuestionSt14default_deleteIS1_EESaIS4_EE11_S_max_sizeERKS5_
FNDA:6,_ZNSt6vectorISt10unique_ptrI8QuestionSt14default_deleteIS1_EESaIS4_EE11_S_max_sizeERKS5_
FN:2234,_ZNSt6vectorISt10unique_ptrI8QuestionSt14default_deleteIS1_EESaIS4_EE15_M_erase_at_endEPS4_
FNDA:1,_ZNSt6vectorISt10unique_ptrI8QuestionSt14default_deleteIS1_EESaIS4_EE15_M_erase_at_endEPS4_
FNF:44
FNH:33
DA:105,0
DA:106,0
DA:107,0
DA:105,1
DA:106,1
DA:107,1
DA:143,1
DA:148,1
DA:149,1
DA:143,1
DA:148,1
DA:149,1
DA:307,0
DA:308,0
DA:307,4
DA:308,4
DA:312,6
DA:313,6
DA:312,0
DA:313,0
DA:321,1
DA:321,1
DA:373,0
DA:375,0
DA:376,0
DA:377,0
DA:384,3
DA:387,6
DA:384,0
DA:387,0
DA:392,0
DA:395,0
DA:396,0
DA:397,0
DA:392,3
DA:395,3
DA:396,3
DA:397,3
DA:534,3
DA:539,3
DA:534,3
DA:539,3
DA:561,1
DA:561,1
DA:800,0
DA:802,0
DA:803,0
DA:805,0
DA:998,3
DA:999,3
DA:998,3
DA:999,3
DA:1008,0
DA:1009,0
DA:1018,6
DA:1019,6
DA:1018,3
DA:1019,3
DA:1028,0
DA:1029,0
DA:1117,0
DA:1119,0
DA:1120,0
DA:1121,0
DA:1122,0
DA:1117,0
DA:1119,0
DA:1120,0
DA:1121,0
DA:1122,0
DA:1128,6
DA:1129,6
DA:1128,6
DA:1129,6
DA:1223,3
DA:1224,6
DA:1368,3
DA:1370,3
DA:1371,9
DA:1416,3
DA:1418,3
DA:1421,0
DA:1423,0
DA:1427,3
DA:1428,3
DA:1433,3
DA:1434,3
DA:1863,1
DA:1864,1
DA:1875,3
DA:1876,3
DA:1877,3
DA:1875,3
DA:1876,3
DA:1877,3
DA:1880,3
DA:1882,3
DA:1883,2
DA:1884,3
DA:1880,3
DA:1882,3
DA:1883,2
DA:1884,3
DA:2197,3
DA:2199,3
DA:2200,0
DA:2202,3
DA:2203,3
DA:2197,3
DA:2199,3
DA:2200,0
DA:2202,3
DA:2203,3
DA:2217,6
DA:2222,6
DA:2224,6
DA:2225,6
DA:2217,6
DA:2222,6
DA:2224,6
DA:2225,6
DA:2234,1
DA:2236,1
DA:2238,0
DA:2239,0
DA:2240,0
DA:2243,1
LF:127
LH:85
end_of_record
SF:C:\Users\oussa\PROJET-CPP/C:/msys64/ucrt64/include/c++/15.2.0/new
FN:206,_ZnwyPv
FNDA:0,_ZnwyPv
FN:217,_ZdlPvS_
FNDA:0,_ZdlPvS_
FNF:2
FNH:0
DA:206,0
DA:208,0
DA:217,0
DA:219,0
LF:4
LH:0
end_of_record
SF:C:\Users\oussa\PROJET-CPP/C:/msys64/ucrt64/include/c++/15.2.0/bits/stl_iterator.h
DA:1058,18
DA:1059,15
DA:1090,3
DA:1103,0
DA:1104,0
DA:1160,3
DA:1166,9
DA:1231,6
DA:1247,0
DA:1340,12
DA:3011,18
LF:11
LH:8
end_of_record
SF:C:\Users\oussa\PROJET-CPP/C:/msys64/ucrt64/include/c++/15.2.0/bits/basic_string.h
FN:140,_ZNSt7__cxx1112basic_stringIcSt11char_traitsIcESaIcEE11_S_allocateERS3_y
FNDA:0,_ZNSt7__cxx1112basic_stringIcSt11char_traitsIcESaIcEE11_S_allocateERS3_y
FN:208,_ZNSt7__cxx1112basic_stringIcSt11char_traitsIcESaIcEE12_Alloc_hiderC1EPcOS3_
FNDA:0,_ZNSt7__cxx1112basic_stringIcSt11char_traitsIcESaIcEE12_Alloc_hiderC1EPcOS3_
FN:228,_ZNSt7__cxx1112basic_stringIcSt11char_traitsIcESaIcEE7_M_dataEPc
FNDA:0,_ZNSt7__cxx1112basic_stringIcSt11char_traitsIcESaIcEE7_M_dataEPc
FN:233,_ZNSt7__cxx1112basic_stringIcSt11char_traitsIcESaIcEE9_M_lengthEy
FNDA:0,_ZNSt7__cxx1112basic_stringIcSt11char_traitsIcESaIcEE9_M_lengthEy
FN:238,_ZNKSt7__cxx1112basic_stringIcSt11char_traitsIcESaIcEE7_M_dataEv
FNDA:0,_ZNKSt7__cxx1112basic_stringIcSt11char_traitsIcESaIcEE7_M_dataEv
FN:243,_ZNSt7__cxx1112basic_stringIcSt11char_traitsIcESaIcEE13_M_local_dataEv
FNDA:0,_ZNSt7__cxx1112basic_stringIcSt11char_traitsIcESaIcEE13_M_local_dataEv
FN:254,_ZNKSt7__cxx1112basic_stringIcSt11char_traitsIcESaIcEE13_M_local_dataEv
FNDA:0,_ZNKSt7__cxx1112basic_stringIcSt11char_traitsIcESaIcEE13_M_local_dataEv
FN:265,_ZNSt7__cxx1112basic_stringIcSt11char_traitsIcESaIcEE11_M_capacityEy
FNDA:0,_ZNSt7__cxx1112basic_stringIcSt11char_traitsIcESaIcEE11_M_capacityEy
FN:270,_ZNSt7__cxx1112basic_stringIcSt11char_traitsIcESaIcEE13_M_set_lengthEy
FNDA:0,_ZNSt7__cxx1112basic_stringIcSt11char_traitsIcESaIcEE13_M_set_lengthEy
FN:278,_ZNKSt7__cxx1112basic_stringIcSt11char_traitsIcESaIcEE11_M_is_localEv
FNDA:0,_ZNKSt7__cxx1112basic_stringIcSt11char_traitsIcESaIcEE11_M_is_localEv
FN:296,_ZNSt7__cxx1112basic_stringIcSt11char_traitsIcESaIcEE10_M_disposeEv
FNDA:0,_ZNSt7__cxx1112basic_stringIcSt11char_traitsIcESaIcEE10_M_disposeEv
FN:304,_ZNSt7__cxx1112basic_stringIcSt11char_traitsIcESaIcEE10_M_destroyEy
FNDA:0,_ZNSt7__cxx1112basic_stringIcSt11char_traitsIcESaIcEE10_M_destroyEy
FN:359,_ZNSt7__cxx1112basic_stringIcSt11char_traitsIcESaIcEE16_M_get_allocatorEv
FNDA:0,_ZNSt7__cxx1112basic_stringIcSt11char_traitsIcESaIcEE16_M_get_allocatorEv
FN:364,_ZNKSt7__cxx1112basic_stringIcSt11char_traitsIcESaIcEE16_M_get_allocatorEv
FNDA:0,_ZNKSt7__cxx1112basic_stringIcSt11char_traitsIcESaIcEE16_M_get_allocatorEv
FN:448,_ZNSt7__cxx1112basic_stringIcSt11char_traitsIcESaIcEE7_S_copyEPcPKcy
FNDA:0,_ZNSt7__cxx1112basic_stringIcSt11char_traitsIcESaIcEE7_S_copyEPcPKcy
FN:585,_ZNSt7__cxx1112basic_stringIcSt11char_traitsIcESaIcEEC1Ev
FNDA:0,_ZNSt7__cxx1112basic_stringIcSt11char_traitsIcESaIcEEC1Ev
FN:613,_ZNSt7__cxx1112basic_stringIcSt11char_traitsIcESaIcEEC1ERKS4_
FNDA:0,_ZNSt7__cxx1112basic_stringIcSt11char_traitsIcESaIcEEC1ERKS4_
FN:742,_ZNSt7__cxx1112basic_stringIcSt11char_traitsIcESaIcEEC1EOS4_
FNDA:3,_ZNSt7__cxx1112basic_stringIcSt11char_traitsIcESaIcEEC1EOS4_
FN:895,_ZNSt7__cxx1112basic_stringIcSt11char_traitsIcESaIcEED1Ev
FNDA:0,_ZNSt7__cxx1112basic_stringIcSt11char_traitsIcESaIcEED1Ev
FN:1163,_ZNKSt7__cxx1112basic_stringIcSt11char_traitsIcESaIcEE4sizeEv
FNDA:0,_ZNKSt7__cxx1112basic_stringIcSt11char_traitsIcESaIcEE4sizeEv
FN:1175,_ZNKSt7__cxx1112basic_stringIcSt11char_traitsIcESaIcEE6lengthEv
FNDA:0,_ZNKSt7__cxx1112basic_stringIcSt11char_traitsIcESaIcEE6lengthEv
FN:1181,_ZNKSt7__cxx1112basic_stringIcSt11char_traitsIcESaIcEE8max_sizeEv
FNDA:0,_ZNKSt7__cxx1112basic_stringIcSt11char_traitsIcESaIcEE8max_sizeEv
FN:2886,_ZNKSt7__cxx1112basic_stringIcSt11char_traitsIcESaIcEE4dataEv
FNDA:0,_ZNKSt7__cxx1112basic_stringIcSt11char_traitsIcESaIcEE4dataEv
FN:4062,_ZSteqIcSt11char_traitsIcESaIcEEbRKNSt7__cxx1112basic_stringIT_T0_T1_EEPKS5_
FNDA:9,_ZSteqIcSt11char_traitsIcESaIcEEbRKNSt7__cxx1112basic_stringIT_T0_T1_EEPKS5_
FNF:24
FNH:2
DA:140,0
DA:142,0
DA:152,0
DA:208,0
DA:209,0
DA:228,0
DA:229,0
DA:233,0
DA:234,0
DA:238,0
DA:239,0
DA:243,0
DA:246,0
DA:254,0
DA:257,0
DA:265,0
DA:266,0
DA:270,0
DA:272,0
DA:273,0
DA:274,0
DA:278,0
DA:280,0
DA:282,0
DA:283,0
DA:284,0
DA:286,0
DA:296,0
DA:298,0
DA:299,0
DA:300,0
DA:304,0
DA:305,0
DA:359,0
DA:360,0
DA:364,0
DA:365,0
DA:378,3
DA:388,3
DA:448,0
DA:450,0
DA:451,0
DA:453,0
DA:454,0
DA:585,0
DA:590,0
DA:593,0
DA:594,0
DA:613,0
DA:614,0
DA:615,0
DA:617,0
DA:618,0
DA:742,3
DA:743,6
DA:745,3
DA:748,3
DA:749,3
DA:753,0
DA:754,0
DA:760,3
DA:761,3
DA:762,3
DA:763,3
DA:895,0
DA:896,0
DA:1163,0
DA:1165,0
DA:1166,0
DA:1167,0
DA:1168,0
DA:1175,0
DA:1176,0
DA:1181,0
DA:1183,0
DA:1185,0
DA:1186,0
DA:2886,0
DA:2887,0
DA:4062,9
DA:4065,9
DA:4066,9
LF:82
LH:14
end_of_record
SF:C:\Users\oussa\PROJET-CPP/C:/msys64/ucrt64/include/c++/15.2.0/bits/stl_uninitialized.h
FN:1280,_ZSt19__relocate_object_aISt10unique_ptrI8QuestionSt14default_deleteIS1_EES4_SaIS4_EEvPT_PT0_RT1_
FNDA:3,_ZSt19__relocate_object_aISt10unique_ptrI8QuestionSt14default_deleteIS1_EES4_SaIS4_EEvPT_PT0_RT1_
FN:1280,_ZSt19__relocate_object_aINSt7__cxx1112basic_stringIcSt11char_traitsIcESaIcEEES5_SaIS5_EEvPT_PT0_RT1_
FNDA:3,_ZSt19__relocate_object_aINSt7__cxx1112basic_stringIcSt11char_traitsIcESaIcEEES5_SaIS5_EEvPT_PT0_RT1_
FN:1303,_ZSt14__relocate_a_1IPSt10unique_ptrI8QuestionSt14default_deleteIS1_EES5_SaIS4_EET0_T_S8_S7_RT1_
FNDA:3,_ZSt14__relocate_a_1IPSt10unique_ptrI8QuestionSt14default_deleteIS1_EES5_SaIS4_EET0_T_S8_S7_RT1_
FN:1303,_ZSt14__relocate_a_1IPNSt7__cxx1112basic_stringIcSt11char_traitsIcESaIcEEES6_SaIS5_EET0_T_S9_S8_RT1_
FNDA:3,_ZSt14__relocate_a_1IPNSt7__cxx1112basic_stringIcSt11char_traitsIcESaIcEEES6_SaIS5_EET0_T_S9_S8_RT1_
FN:1353,_ZSt12__relocate_aIPSt10unique_ptrI8QuestionSt14default_deleteIS1_EES5_SaIS4_EET0_T_S8_S7_RT1_
FNDA:3,_ZSt12__relocate_aIPSt10unique_ptrI8QuestionSt14default_deleteIS1_EES5_SaIS4_EET0_T_S8_S7_RT1_
FN:1353,_ZSt12__relocate_aIPNSt7__cxx1112basic_stringIcSt11char_traitsIcESaIcEEES6_SaIS5_EET0_T_S9_S8_RT1_
FNDA:3,_ZSt12__relocate_aIPNSt7__cxx1112basic_stringIcSt11char_traitsIcESaIcEEES6_SaIS5_EET0_T_S9_S8_RT1_
FNF:6
FNH:6
DA:1280,3
DA:1288,3
DA:1289,3
DA:1290,3
DA:1280,3
DA:1288,3
DA:1289,3
DA:1290,3
DA:1303,3
DA:1315,3
DA:1316,6
DA:1317,6
DA:1319,3
DA:1303,3
DA:1315,3
DA:1316,6
DA:1317,6
DA:1319,3
DA:1353,3
DA:1359,9
DA:1361,3
DA:1353,3
DA:1359,9
DA:1361,3
LF:24
LH:24
end_of_record
SF:C:\Users\oussa\PROJET-CPP/C:/msys64/ucrt64/include/c++/15.2.0/tuple
FN:93,_ZNSt10_Head_baseILy1ESt14default_deleteI11QuestionQCMELb1EEC2Ev
FNDA:1,_ZNSt10_Head_baseILy1ESt14default_deleteI11QuestionQCMELb1EEC2Ev
FN:93,_ZNSt10_Head_baseILy1ESt14default_deleteI17QuestionNumeriqueELb1EEC2Ev
FNDA:1,_ZNSt10_Head_baseILy1ESt14default_deleteI17QuestionNumeriqueELb1EEC2Ev
FN:93,_ZNSt10_Head_baseILy1ESt14default_deleteI13QuestionTexteELb1EEC2Ev
FNDA:1,_ZNSt10_Head_baseILy1ESt14default_deleteI13QuestionTexteELb1EEC2Ev
FN:103,_ZNSt10_Head_baseILy1ESt14default_deleteI8QuestionELb1EEC2IS0_I11QuestionQCMEEEOT_
FNDA:1,_ZNSt10_Head_baseILy1ESt14default_deleteI8QuestionELb1EEC2IS0_I11QuestionQCMEEEOT_
FN:103,_ZNSt10_Head_baseILy1ESt14default_deleteI8QuestionELb1EEC2IS0_I13QuestionTexteEEEOT_
FNDA:1,_ZNSt10_Head_baseILy1ESt14default_deleteI8QuestionELb1EEC2IS0_I13QuestionTexteEEEOT_
FN:103,_ZNSt10_Head_baseILy1ESt14default_deleteI8QuestionELb1EEC2IS0_I17QuestionNumeriqueEEEOT_
FNDA:1,_ZNSt10_Head_baseILy1ESt14default_deleteI8QuestionELb1EEC2IS0_I17QuestionNumeriqueEEEOT_
FN:137,_ZNSt10_Head_baseILy1ESt14default_deleteI17QuestionNumeriqueELb1EE7_M_headERS3_
FNDA:1,_ZNSt10_Head_baseILy1ESt14default_deleteI17QuestionNumeriqueELb1EE7_M_headERS3_
FN:137,_ZNSt10_Head_baseILy1ESt14default_deleteI8QuestionELb1EE7_M_headERS3_
FNDA:3,_ZNSt10_Head_baseILy1ESt14default_deleteI8QuestionELb1EE7_M_headERS3_
FN:137,_ZNSt10_Head_baseILy1ESt14default_deleteI13QuestionTexteELb1EE7_M_headERS3_
FNDA:1,_ZNSt10_Head_baseILy1ESt14default_deleteI13QuestionTexteELb1EE7_M_headERS3_
FN:137,_ZNSt10_Head_baseILy1ESt14default_deleteI11QuestionQCMELb1EE7_M_headERS3_
FNDA:1,_ZNSt10_Head_baseILy1ESt14default_deleteI11QuestionQCMELb1EE7_M_headERS3_
FN:202,_ZNSt10_Head_baseILy0EP11QuestionQCMLb0EEC2Ev
FNDA:1,_ZNSt10_Head_baseILy0EP11QuestionQCMLb0EEC2Ev
FN:202,_ZNSt10_Head_baseILy0EP13QuestionTexteLb0EEC2Ev
FNDA:1,_ZNSt10_Head_baseILy0EP13QuestionTexteLb0EEC2Ev
FN:202,_ZNSt10_Head_baseILy0EP17QuestionNumeriqueLb0EEC2Ev
FNDA:1,_ZNSt10_Head_baseILy0EP17QuestionNumeriqueLb0EEC2Ev
FN:212,_ZNSt10_Head_baseILy0EP8QuestionLb0EEC2IRS1_EEOT_
FNDA:3,_ZNSt10_Head_baseILy0EP8QuestionLb0EEC2IRS1_EEOT_
FN:246,_ZNSt10_Head_baseILy0EP17QuestionNumeriqueLb0EE7_M_headERS2_
FNDA:4,_ZNSt10_Head_baseILy0EP17QuestionNumeriqueLb0EE7_M_headERS2_
FN:246,_ZNSt10_Head_baseILy0EP11QuestionQCMLb0EE7_M_headERS2_
FNDA:4,_ZNSt10_Head_baseILy0EP11QuestionQCMLb0EE7_M_headERS2_
FN:246,_ZNSt10_Head_baseILy0EP8QuestionLb0EE7_M_headERS2_
FNDA:15,_ZNSt10_Head_baseILy0EP8QuestionLb0EE7_M_headERS2_
FN:246,_ZNSt10_Head_baseILy0EP13QuestionTexteLb0EE7_M_headERS2_
FNDA:4,_ZNSt10_Head_baseILy0EP13QuestionTexteLb0EE7_M_headERS2_
FN:249,_ZNSt10_Head_baseILy0EP8QuestionLb0EE7_M_headERKS2_
FNDA:0,_ZNSt10_Head_baseILy0EP8QuestionLb0EE7_M_headERKS2_
FN:291,_ZNSt11_Tuple_implILy0EJP8QuestionSt14default_deleteIS0_EEE7_M_headERS4_
FNDA:15,_ZNSt11_Tuple_implILy0EJP8QuestionSt14default_deleteIS0_EEE7_M_headERS4_
FN:291,_ZNSt11_Tuple_implILy0EJP17QuestionNumeriqueSt14default_deleteIS0_EEE7_M_headERS4_
FNDA:4,_ZNSt11_Tuple_implILy0EJP17QuestionNumeriqueSt14default_deleteIS0_EEE7_M_headERS4_
FN:291,_ZNSt11_Tuple_implILy0EJP11QuestionQCMSt14default_deleteIS0_EEE7_M_headERS4_
FNDA:4,_ZNSt11_Tuple_implILy0EJP11QuestionQCMSt14default_deleteIS0_EEE7_M_headERS4_
FN:291,_ZNSt11_Tuple_implILy0EJP13QuestionTexteSt14default_deleteIS0_EEE7_M_headERS4_
FNDA:4,_ZNSt11_Tuple_implILy0EJP13QuestionTexteSt14default_deleteIS0_EEE7_M_headERS4_
FN:294,_ZNSt11_Tuple_implILy0EJP8QuestionSt14default_deleteIS0_EEE7_M_headERKS4_
FNDA:0,_ZNSt11_Tuple_implILy0EJP8QuestionSt14default_deleteIS0_EEE7_M_headERKS4_
FN:302,_ZNSt11_Tuple_implILy0EJP11QuestionQCMSt14default_deleteIS0_EEEC2Ev
FNDA:1,_ZNSt11_Tuple_implILy0EJP11QuestionQCMSt14default_deleteIS0_EEEC2Ev
FN:302,_ZNSt11_Tuple_implILy0EJP13QuestionTexteSt14default_deleteIS0_EEEC2Ev
FNDA:1,_ZNSt11_Tuple_implILy0EJP13QuestionTexteSt14default_deleteIS0_EEEC2Ev
FN:302,_ZNSt11_Tuple_implILy0EJP17QuestionNumeriqueSt14default_deleteIS0_EEEC2Ev
FNDA:1,_ZNSt11_Tuple_implILy0EJP17QuestionNumeriqueSt14default_deleteIS0_EEEC2Ev
FN:313,_ZNSt11_Tuple_implILy0EJP8QuestionSt14default_deleteIS0_EEEC2IRS1_JS2_I13QuestionTexteEEvEEOT_DpOT0_
FNDA:1,_ZNSt11_Tuple_implILy0EJP8QuestionSt14default_deleteIS0_EEEC2IRS1_JS2_I13QuestionTexteEEvEEOT_DpOT0_
FN:313,_ZNSt11_Tuple_implILy0EJP8QuestionSt14default_deleteIS0_EEEC2IRS1_JS2_I17QuestionNumeriqueEEvEEOT_DpOT0_
FNDA:1,_ZNSt11_Tuple_implILy0EJP8QuestionSt14default_deleteIS0_EEEC2IRS1_JS2_I17QuestionNumeriqueEEvEEOT_DpOT0_
FN:313,_ZNSt11_Tuple_implILy0EJP8QuestionSt14default_deleteIS0_EEEC2IRS1_JS2_I11QuestionQCMEEvEEOT_DpOT0_
FNDA:1,_ZNSt11_Tuple_implILy0EJP8QuestionSt14default_deleteIS0_EEEC2IRS1_JS2_I11QuestionQCMEEvEEOT_DpOT0_
FN:324,_ZNSt11_Tuple_implILy0EJP8QuestionSt14default_deleteIS0_EEEC2EOS4_
FNDA:6,_ZNSt11_Tuple_implILy0EJP8QuestionSt14default_deleteIS0_EEEC2EOS4_
FN:554,_ZNSt11_Tuple_implILy1EJSt14default_deleteI13QuestionTexteEEE7_M_headERS3_
FNDA:1,_ZNSt11_Tuple_implILy1EJSt14default_deleteI13QuestionTexteEEE7_M_headERS3_
FN:554,_ZNSt11_Tuple_implILy1EJSt14default_deleteI8QuestionEEE7_M_headERS3_
FNDA:3,_ZNSt11_Tuple_implILy1EJSt14default_deleteI8QuestionEEE7_M_headERS3_
FN:554,_ZNSt11_Tuple_implILy1EJSt14default_deleteI11QuestionQCMEEE7_M_headERS3_
FNDA:1,_ZNSt11_Tuple_implILy1EJSt14default_deleteI11QuestionQCMEEE7_M_headERS3_
FN:554,_ZNSt11_Tuple_implILy1EJSt14default_deleteI17QuestionNumeriqueEEE7_M_headERS3_
FNDA:1,_ZNSt11_Tuple_implILy1EJSt14default_deleteI17QuestionNumeriqueEEE7_M_headERS3_
FN:560,_ZNSt11_Tuple_implILy1EJSt14default_deleteI13QuestionTexteEEEC2Ev
FNDA:1,_ZNSt11_Tuple_implILy1EJSt14default_deleteI13QuestionTexteEEEC2Ev
FN:560,_ZNSt11_Tuple_implILy1EJSt14default_deleteI11QuestionQCMEEEC2Ev
FNDA:1,_ZNSt11_Tuple_implILy1EJSt14default_deleteI11QuestionQCMEEEC2Ev
FN:560,_ZNSt11_Tuple_implILy1EJSt14default_deleteI17QuestionNumeriqueEEEC2Ev
FNDA:1,_ZNSt11_Tuple_implILy1EJSt14default_deleteI17QuestionNumeriqueEEEC2Ev
FN:570,_ZNSt11_Tuple_implILy1EJSt14default_deleteI8QuestionEEEC2IS0_I13QuestionTexteEEEOT_
FNDA:1,_ZNSt11_Tuple_implILy1EJSt14default_deleteI8QuestionEEEC2IS0_I13QuestionTexteEEEOT_
FN:570,_ZNSt11_Tuple_implILy1EJSt14default_deleteI8QuestionEEEC2IS0_I11QuestionQCMEEEOT_
FNDA:1,_ZNSt11_Tuple_implILy1EJSt14default_deleteI8QuestionEEEC2IS0_I11QuestionQCMEEEOT_
FN:570,_ZNSt11_Tuple_implILy1EJSt14default_deleteI8QuestionEEEC2IS0_I17QuestionNumeriqueEEEOT_
FNDA:1,_ZNSt11_Tuple_implILy1EJSt14default_deleteI8QuestionEEEC2IS0_I17QuestionNumeriqueEEEOT_
FN:584,_ZNSt11_Tuple_implILy1EJSt14default_deleteI8QuestionEEEC2EOS3_
FNDA:6,_ZNSt11_Tuple_implILy1EJSt14default_deleteI8QuestionEEEC2EOS3_
FN:2090,_ZNSt5tupleIJP17QuestionNumeriqueSt14default_deleteIS0_EEEC1ILb1ELb1EEEv
FNDA:1,_ZNSt5tupleIJP17QuestionNumeriqueSt14default_deleteIS0_EEEC1ILb1ELb1EEEv
FN:2090,_ZNSt5tupleIJP13QuestionTexteSt14default_deleteIS0_EEEC1ILb1ELb1EEEv
FNDA:1,_ZNSt5tupleIJP13QuestionTexteSt14default_deleteIS0_EEEC1ILb1ELb1EEEv
FN:2090,_ZNSt5tupleIJP11QuestionQCMSt14default_deleteIS0_EEEC1ILb1ELb1EEEv
FNDA:1,_ZNSt5tupleIJP11QuestionQCMSt14default_deleteIS0_EEEC1ILb1ELb1EEEv
FN:2118,_ZNSt5tupleIJP8QuestionSt14default_deleteIS0_EEEC1IRS1_S2_I17QuestionNumeriqueELb1EEEOT_OT0_
FNDA:1,_ZNSt5tupleIJP8QuestionSt14default_deleteIS0_EEEC1IRS1_S2_I17QuestionNumeriqueELb1EEEOT_OT0_
FN:2118,_ZNSt5tupleIJP8QuestionSt14default_deleteIS0_EEEC1IRS1_S2_I13QuestionTexteELb1EEEOT_OT0_
FNDA:1,_ZNSt5tupleIJP8QuestionSt14default_deleteIS0_EEEC1IRS1_S2_I13QuestionTexteELb1EEEOT_OT0_
FN:2118,_ZNSt5tupleIJP8QuestionSt14default_deleteIS0_EEEC1IRS1_S2_I11QuestionQCMELb1EEEOT_OT0_
FNDA:1,_ZNSt5tupleIJP8QuestionSt14default_deleteIS0_EEEC1IRS1_S2_I11QuestionQCMELb1EEEOT_OT0_
FN:2133,_ZNSt5tupleIJP8QuestionSt14default_deleteIS0_EEEC1EOS4_
FNDA:6,_ZNSt5tupleIJP8QuestionSt14default_deleteIS0_EEEC1EOS4_
FN:2428,_ZSt12__get_helperILy0EP11QuestionQCMJSt14default_deleteIS0_EEERT0_RSt11_Tuple_implIXT_EJS4_DpT1_EE
FNDA:4,_ZSt12__get_helperILy0EP11QuestionQCMJSt14default_deleteIS0_EEERT0_RSt11_Tuple_implIXT_EJS4_DpT1_EE
FN:2428,_ZSt12__get_helperILy0EP17QuestionNumeriqueJSt14default_deleteIS0_EEERT0_RSt11_Tuple_implIXT_EJS4_DpT1_EE
FNDA:4,_ZSt12__get_helperILy0EP17QuestionNumeriqueJSt14default_deleteIS0_EEERT0_RSt11_Tuple_implIXT_EJS4_DpT1_EE
FN:2428,_ZSt12__get_helperILy1ESt14default_deleteI8QuestionEJEERT0_RSt11_Tuple_implIXT_EJS3_DpT1_EE
FNDA:3,_ZSt12__get_helperILy1ESt14default_deleteI8QuestionEJEERT0_RSt11_Tuple_implIXT_EJS3_DpT1_EE
FN:2428,_ZSt12__get_helperILy0EP8QuestionJSt14default_deleteIS0_EEERT0_RSt11_Tuple_implIXT_EJS4_DpT1_EE
FNDA:15,_ZSt12__get_helperILy0EP8QuestionJSt14default_deleteIS0_EEERT0_RSt11_Tuple_implIXT_EJS4_DpT1_EE
FN:2428,_ZSt12__get_helperILy1ESt14default_deleteI17QuestionNumeriqueEJEERT0_RSt11_Tuple_implIXT_EJS3_DpT1_EE
FNDA:1,_ZSt12__get_helperILy1ESt14default_deleteI17QuestionNumeriqueEJEERT0_RSt11_Tuple_implIXT_EJS3_DpT1_EE
FN:2428,_ZSt12__get_helperILy1ESt14default_deleteI11QuestionQCMEJEERT0_RSt11_Tuple_implIXT_EJS3_DpT1_EE
FNDA:1,_ZSt12__get_helperILy1ESt14default_deleteI11QuestionQCMEJEERT0_RSt11_Tuple_implIXT_EJS3_DpT1_EE
FN:2428,_ZSt12__get_helperILy0EP13QuestionTexteJSt14default_deleteIS0_EEERT0_RSt11_Tuple_implIXT_EJS4_DpT1_EE
FNDA:4,_ZSt12__get_helperILy0EP13QuestionTexteJSt14default_deleteIS0_EEERT0_RSt11_Tuple_implIXT_EJS4_DpT1_EE
FN:2428,_ZSt12__get_helperILy1ESt14default_deleteI13QuestionTexteEJEERT0_RSt11_Tuple_implIXT_EJS3_DpT1_EE
FNDA:1,_ZSt12__get_helperILy1ESt14default_deleteI13QuestionTexteEJEERT0_RSt11_Tuple_implIXT_EJS3_DpT1_EE
FN:2433,_ZSt12__get_helperILy0EP8QuestionJSt14default_deleteIS0_EEERKT0_RKSt11_Tuple_implIXT_EJS4_DpT1_EE
FNDA:0,_ZSt12__get_helperILy0EP8QuestionJSt14default_deleteIS0_EEERKT0_RKSt11_Tuple_implIXT_EJS4_DpT1_EE
FN:2444,_ZSt3getILy0EJP8QuestionSt14default_deleteIS0_EEERNSt13tuple_elementIXT_ESt5tupleIJDpT0_EEE4typeERS8_
FNDA:15,_ZSt3getILy0EJP8QuestionSt14default_deleteIS0_EEERNSt13tuple_elementIXT_ESt5tupleIJDpT0_EEE4typeERS8_
FN:2444,_ZSt3getILy0EJP17QuestionNumeriqueSt14default_deleteIS0_EEERNSt13tuple_elementIXT_ESt5tupleIJDpT0_EEE4typeERS8_
FNDA:4,_ZSt3getILy0EJP17QuestionNumeriqueSt14default_deleteIS0_EEERNSt13tuple_elementIXT_ESt5tupleIJDpT0_EEE4typeERS8_
FN:2444,_ZSt3getILy1EJP13QuestionTexteSt14default_deleteIS0_EEERNSt13tuple_elementIXT_ESt5tupleIJDpT0_EEE4typeERS8_
FNDA:1,_ZSt3getILy1EJP13QuestionTexteSt14default_deleteIS0_EEERNSt13tuple_elementIXT_ESt5tupleIJDpT0_EEE4typeERS8_
FN:2444,_ZSt3getILy0EJP13QuestionTexteSt14default_deleteIS0_EEERNSt13tuple_elementIXT_ESt5tupleIJDpT0_EEE4typeERS8_
FNDA:4,_ZSt3getILy0EJP13QuestionTexteSt14default_deleteIS0_EEERNSt13tuple_elementIXT_ESt5tupleIJDpT0_EEE4typeERS8_
FN:2444,_ZSt3getILy0EJP11QuestionQCMSt14default_deleteIS0_EEERNSt13tuple_elementIXT_ESt5tupleIJDpT0_EEE4typeERS8_
FNDA:4,_ZSt3getILy0EJP11QuestionQCMSt14default_deleteIS0_EEERNSt13tuple_elementIXT_ESt5tupleIJDpT0_EEE4typeERS8_
FN:2444,_ZSt3getILy1EJP8QuestionSt14default_deleteIS0_EEERNSt13tuple_elementIXT_ESt5tupleIJDpT0_EEE4typeERS8_
FNDA:3,_ZSt3getILy1EJP8QuestionSt14default_deleteIS0_EEERNSt13tuple_elementIXT_ESt5tupleIJDpT0_EEE4typeERS8_
FN:2444,_ZSt3getILy1EJP17QuestionNumeriqueSt14default_deleteIS0_EEERNSt13tuple_elementIXT_ESt5tupleIJDpT0_EEE4typeERS8_
FNDA:1,_ZSt3getILy1EJP17QuestionNumeriqueSt14default_deleteIS0_EEERNSt13tuple_elementIXT_ESt5tupleIJDpT0_EEE4typeERS8_
FN:2444,_ZSt3getILy1EJP11QuestionQCMSt14default_deleteIS0_EEERNSt13tuple_elementIXT_ESt5tupleIJDpT0_EEE4typeERS8_
FNDA:1,_ZSt3getILy1EJP11QuestionQCMSt14default_deleteIS0_EEERNSt13tuple_elementIXT_ESt5tupleIJDpT0_EEE4typeERS8_
FN:2450,_ZSt3getILy0EJP8QuestionSt14default_deleteIS0_EEERKNSt13tuple_elementIXT_ESt5tupleIJDpT0_EEE4typeERKS8_
FNDA:0,_ZSt3getILy0EJP8QuestionSt14default_deleteIS0_EEERKNSt13tuple_elementIXT_ESt5tupleIJDpT0_EEE4typeERKS8_
FNF:67
FNH:63
DA:93,1
DA:94,1
DA:93,1
DA:94,1
DA:93,1
DA:94,1
DA:103,1
DA:104,2
DA:103,1
DA:104,2
DA:103,1
DA:104,2
DA:137,1
DA:137,1
DA:137,3
DA:137,1
DA:202,1
DA:203,1
DA:202,1
DA:203,1
DA:202,1
DA:203,1
DA:212,3
DA:213,3
DA:246,4
DA:246,4
DA:246,15
DA:246,4
DA:249,0
DA:291,4
DA:291,4
DA:291,15
DA:291,4
DA:294,0
DA:302,1
DA:303,1
DA:302,1
DA:303,1
DA:302,1
DA:303,1
DA:313,1
DA:315,2
DA:316,1
DA:313,1
DA:315,2
DA:316,1
DA:313,1
DA:315,2
DA:316,1
DA:324,6
DA:554,1
DA:554,1
DA:554,3
DA:554,1
DA:560,1
DA:561,1
DA:560,1
DA:561,1
DA:560,1
DA:561,1
DA:570,1
DA:571,1
DA:572,1
DA:570,1
DA:571,1
DA:572,1
DA:570,1
DA:571,1
DA:572,1
DA:584,6
DA:587,6
DA:2090,1
DA:2092,1
DA:2090,1
DA:2092,1
DA:2090,1
DA:2092,1
DA:2118,1
DA:2120,3
DA:2121,1
DA:2118,1
DA:2120,3
DA:2121,1
DA:2118,1
DA:2120,3
DA:2121,1
DA:2133,6
DA:2428,1
DA:2429,1
DA:2428,1
DA:2429,1
DA:2428,3
DA:2429,3
DA:2428,1
DA:2429,1
DA:2428,4
DA:2429,4
DA:2428,4
DA:2429,4
DA:2428,15
DA:2429,15
DA:2428,4
DA:2429,4
DA:2433,0
DA:2434,0
DA:2444,1
DA:2445,1
DA:2444,1
DA:2445,1
DA:2444,3
DA:2445,3
DA:2444,1
DA:2445,1
DA:2444,4
DA:2445,4
DA:2444,4
DA:2445,4
DA:2444,15
DA:2445,15
DA:2444,4
DA:2445,4
DA:2450,0
DA:2451,0
LF:123
LH:117
end_of_record
SF:C:\Users\oussa\PROJET-CPP/C:/msys64/ucrt64/include/c++/15.2.0/bits/unique_ptr.h
FN:82,_ZNSt14default_deleteI8QuestionEC1I17QuestionNumeriquevEERKS_IT_E
FNDA:1,_ZNSt14default_deleteI8QuestionEC1I17QuestionNumeriquevEERKS_IT_E
FN:82,_ZNSt14default_deleteI8QuestionEC1I13QuestionTextevEERKS_IT_E
FNDA:1,_ZNSt14default_deleteI8QuestionEC1I13QuestionTextevEERKS_IT_E
FN:82,_ZNSt14default_deleteI8QuestionEC1I11QuestionQCMvEERKS_IT_E
FNDA:1,_ZNSt14default_deleteI8QuestionEC1I11QuestionQCMvEERKS_IT_E
FN:87,_ZNKSt14default_deleteI17QuestionNumeriqueEclEPS0_
FNDA:0,_ZNKSt14default_deleteI17QuestionNumeriqueEclEPS0_
FN:87,_ZNKSt14default_deleteI13QuestionTexteEclEPS0_
FNDA:0,_ZNKSt14default_deleteI13QuestionTexteEclEPS0_
FN:87,_ZNKSt14default_deleteI8QuestionEclEPS0_
FNDA:3,_ZNKSt14default_deleteI8QuestionEclEPS0_
FN:87,_ZNKSt14default_deleteI11QuestionQCMEclEPS0_
FNDA:0,_ZNKSt14default_deleteI11QuestionQCMEclEPS0_
FN:170,_ZNSt15__uniq_ptr_implI11QuestionQCMSt14default_deleteIS0_EEC2EPS0_
FNDA:1,_ZNSt15__uniq_ptr_implI11QuestionQCMSt14default_deleteIS0_EEC2EPS0_
FN:170,_ZNSt15__uniq_ptr_implI17QuestionNumeriqueSt14default_deleteIS0_EEC2EPS0_
FNDA:1,_ZNSt15__uniq_ptr_implI17QuestionNumeriqueSt14default_deleteIS0_EEC2EPS0_
FN:170,_ZNSt15__uniq_ptr_implI13QuestionTexteSt14default_deleteIS0_EEC2EPS0_
FNDA:1,_ZNSt15__uniq_ptr_implI13QuestionTexteSt14default_deleteIS0_EEC2EPS0_
FN:174,_ZNSt15__uniq_ptr_implI8QuestionSt14default_deleteIS0_EEC2IS1_I13QuestionTexteEEEPS0_OT_
FNDA:1,_ZNSt15__uniq_ptr_implI8QuestionSt14default_deleteIS0_EEC2IS1_I13QuestionTexteEEEPS0_OT_
FN:174,_ZNSt15__uniq_ptr_implI8QuestionSt14default_deleteIS0_EEC2IS1_I17QuestionNumeriqueEEEPS0_OT_
FNDA:1,_ZNSt15__uniq_ptr_implI8QuestionSt14default_deleteIS0_EEC2IS1_I17QuestionNumeriqueEEEPS0_OT_
FN:174,_ZNSt15__uniq_ptr_implI8QuestionSt14default_deleteIS0_EEC2IS1_I11QuestionQCMEEEPS0_OT_
FNDA:1,_ZNSt15__uniq_ptr_implI8QuestionSt14default_deleteIS0_EEC2IS1_I11QuestionQCMEEEPS0_OT_
FN:178,_ZNSt15__uniq_ptr_implI8QuestionSt14default_deleteIS0_EEC2EOS3_
FNDA:6,_ZNSt15__uniq_ptr_implI8QuestionSt14default_deleteIS0_EEC2EOS3_
FN:191,_ZNSt15__uniq_ptr_implI17QuestionNumeriqueSt14default_deleteIS0_EE6_M_ptrEv
FNDA:4,_ZNSt15__uniq_ptr_implI17QuestionNumeriqueSt14default_deleteIS0_EE6_M_ptrEv
FN:191,_ZNSt15__uniq_ptr_implI8QuestionSt14default_deleteIS0_EE6_M_ptrEv
FNDA:15,_ZNSt15__uniq_ptr_implI8QuestionSt14default_deleteIS0_EE6_M_ptrEv
FN:191,_ZNSt15__uniq_ptr_implI11QuestionQCMSt14default_deleteIS0_EE6_M_ptrEv
FNDA:4,_ZNSt15__uniq_ptr_implI11QuestionQCMSt14default_deleteIS0_EE6_M_ptrEv
FN:191,_ZNSt15__uniq_ptr_implI13QuestionTexteSt14default_deleteIS0_EE6_M_ptrEv
FNDA:4,_ZNSt15__uniq_ptr_implI13QuestionTexteSt14default_deleteIS0_EE6_M_ptrEv
FN:193,_ZNKSt15__uniq_ptr_implI8QuestionSt14default_deleteIS0_EE6_M_ptrEv
FNDA:0,_ZNKSt15__uniq_ptr_implI8QuestionSt14default_deleteIS0_EE6_M_ptrEv
FN:195,_ZNSt15__uniq_ptr_implI11QuestionQCMSt14default_deleteIS0_EE10_M_deleterEv
FNDA:1,_ZNSt15__uniq_ptr_implI11QuestionQCMSt14default_deleteIS0_EE10_M_deleterEv
FN:195,_ZNSt15__uniq_ptr_implI13QuestionTexteSt14default_deleteIS0_EE10_M_deleterEv
FNDA:1,_ZNSt15__uniq_ptr_implI13QuestionTexteSt14default_deleteIS0_EE10_M_deleterEv
FN:195,_ZNSt15__uniq_ptr_implI8QuestionSt14default_deleteIS0_EE10_M_deleterEv
FNDA:3,_ZNSt15__uniq_ptr_implI8QuestionSt14default_deleteIS0_EE10_M_deleterEv
FN:195,_ZNSt15__uniq_ptr_implI17QuestionNumeriqueSt14default_deleteIS0_EE10_M_deleterEv
FNDA:1,_ZNSt15__uniq_ptr_implI17QuestionNumeriqueSt14default_deleteIS0_EE10_M_deleterEv
FN:209,_ZNSt15__uniq_ptr_implI11QuestionQCMSt14default_deleteIS0_EE7releaseEv
FNDA:1,_ZNSt15__uniq_ptr_implI11QuestionQCMSt14default_deleteIS0_EE7releaseEv
FN:209,_ZNSt15__uniq_ptr_implI13QuestionTexteSt14default_deleteIS0_EE7releaseEv
FNDA:1,_ZNSt15__uniq_ptr_implI13QuestionTexteSt14default_deleteIS0_EE7releaseEv
FN:209,_ZNSt15__uniq_ptr_implI17QuestionNumeriqueSt14default_deleteIS0_EE7releaseEv
FNDA:1,_ZNSt15__uniq_ptr_implI17QuestionNumeriqueSt14default_deleteIS0_EE7releaseEv
FN:236,_ZNSt15__uniq_ptr_dataI8QuestionSt14default_deleteIS0_ELb1ELb1EEC1EOS3_
FNDA:6,_ZNSt15__uniq_ptr_dataI8QuestionSt14default_deleteIS0_ELb1ELb1EEC1EOS3_
FN:311,_ZNSt10unique_ptrI13QuestionTexteSt14default_deleteIS0_EEC1IS2_vEEPS0_
FNDA:1,_ZNSt10unique_ptrI13QuestionTexteSt14default_deleteIS0_EEC1IS2_vEEPS0_
FN:311,_ZNSt10unique_ptrI17QuestionNumeriqueSt14default_deleteIS0_EEC1IS2_vEEPS0_
FNDA:1,_ZNSt10unique_ptrI17QuestionNumeriqueSt14default_deleteIS0_EEC1IS2_vEEPS0_
FN:311,_ZNSt10unique_ptrI11QuestionQCMSt14default_deleteIS0_EEC1IS2_vEEPS0_
FNDA:1,_ZNSt10unique_ptrI11QuestionQCMSt14default_deleteIS0_EEC1IS2_vEEPS0_
FN:360,_ZNSt10unique_ptrI8QuestionSt14default_deleteIS0_EEC1EOS3_
FNDA:6,_ZNSt10unique_ptrI8QuestionSt14default_deleteIS0_EEC1EOS3_
FN:374,_ZNSt10unique_ptrI8QuestionSt14default_deleteIS0_EEC1I13QuestionTexteS1_IS5_EvEEOS_IT_T0_E
FNDA:1,_ZNSt10unique_ptrI8QuestionSt14default_deleteIS0_EEC1I13QuestionTexteS1_IS5_EvEEOS_IT_T0_E
FN:374,_ZNSt10unique_ptrI8QuestionSt14default_deleteIS0_EEC1I17QuestionNumeriqueS1_IS5_EvEEOS_IT_T0_E
FNDA:1,_ZNSt10unique_ptrI8QuestionSt14default_deleteIS0_EEC1I17QuestionNumeriqueS1_IS5_EvEEOS_IT_T0_E
FN:374,_ZNSt10unique_ptrI8QuestionSt14default_deleteIS0_EEC1I11QuestionQCMS1_IS5_EvEEOS_IT_T0_E
FNDA:1,_ZNSt10unique_ptrI8QuestionSt14default_deleteIS0_EEC1I11QuestionQCMS1_IS5_EvEEOS_IT_T0_E
FN:393,_ZNSt10unique_ptrI13QuestionTexteSt14default_deleteIS0_EED1Ev
FNDA:1,_ZNSt10unique_ptrI13QuestionTexteSt14default_deleteIS0_EED1Ev
FN:393,_ZNSt10unique_ptrI8QuestionSt14default_deleteIS0_EED1Ev
FNDA:9,_ZNSt10unique_ptrI8QuestionSt14default_deleteIS0_EED1Ev
FN:393,_ZNSt10unique_ptrI17QuestionNumeriqueSt14default_deleteIS0_EED1Ev
FNDA:1,_ZNSt10unique_ptrI17QuestionNumeriqueSt14default_deleteIS0_EED1Ev
FN:393,_ZNSt10unique_ptrI11QuestionQCMSt14default_deleteIS0_EED1Ev
FNDA:1,_ZNSt10unique_ptrI11QuestionQCMSt14default_deleteIS0_EED1Ev
FN:463,_ZNKSt10unique_ptrI8QuestionSt14default_deleteIS0_EEptEv
FNDA:0,_ZNKSt10unique_ptrI8QuestionSt14default_deleteIS0_EEptEv
FN:472,_ZNKSt10unique_ptrI8QuestionSt14default_deleteIS0_EE3getEv
FNDA:0,_ZNKSt10unique_ptrI8QuestionSt14default_deleteIS0_EE3getEv
FN:478,_ZNSt10unique_ptrI11QuestionQCMSt14default_deleteIS0_EE11get_deleterEv
FNDA:1,_ZNSt10unique_ptrI11QuestionQCMSt14default_deleteIS0_EE11get_deleterEv
FN:478,_ZNSt10unique_ptrI13QuestionTexteSt14default_deleteIS0_EE11get_deleterEv
FNDA:1,_ZNSt10unique_ptrI13QuestionTexteSt14default_deleteIS0_EE11get_deleterEv
FN:478,_ZNSt10unique_ptrI17QuestionNumeriqueSt14default_deleteIS0_EE11get_deleterEv
FNDA:1,_ZNSt10unique_ptrI17QuestionNumeriqueSt14default_deleteIS0_EE11get_deleterEv
FN:478,_ZNSt10unique_ptrI8QuestionSt14default_deleteIS0_EE11get_deleterEv
FNDA:3,_ZNSt10unique_ptrI8QuestionSt14default_deleteIS0_EE11get_deleterEv
FN:497,_ZNSt10unique_ptrI11QuestionQCMSt14default_deleteIS0_EE7releaseEv
FNDA:1,_ZNSt10unique_ptrI11QuestionQCMSt14default_deleteIS0_EE7releaseEv
FN:497,_ZNSt10unique_ptrI13QuestionTexteSt14default_deleteIS0_EE7releaseEv
FNDA:1,_ZNSt10unique_ptrI13QuestionTexteSt14default_deleteIS0_EE7releaseEv
FN:497,_ZNSt10unique_ptrI17QuestionNumeriqueSt14default_deleteIS0_EE7releaseEv
FNDA:1,_ZNSt10unique_ptrI17QuestionNumeriqueSt14default_deleteIS0_EE7releaseEv
FN:1084,_ZSt11make_uniqueI11QuestionQCMJRNSt7__cxx1112basic_stringIcSt11char_traitsIcESaIcEEES7_RSt6vectorIS6_SaIS6_EERiEENSt8__detail9_MakeUniqIT_E15__single_objectEDpOT0_
FNDA:1,_ZSt11make_uniqueI11QuestionQCMJRNSt7__cxx1112basic_stringIcSt11char_traitsIcESaIcEEES7_RSt6vectorIS6_SaIS6_EERiEENSt8__detail9_MakeUniqIT_E15__single_objectEDpOT0_
FN:1084,_ZSt11make_uniqueI17QuestionNumeriqueJRNSt7__cxx1112basic_stringIcSt11char_traitsIcESaIcEEES7_RiS8_S8_EENSt8__detail9_MakeUniqIT_E15__single_objectEDpOT0_
FNDA:1,_ZSt11make_uniqueI17QuestionNumeriqueJRNSt7__cxx1112basic_stringIcSt11char_traitsIcESaIcEEES7_RiS8_S8_EENSt8__detail9_MakeUniqIT_E15__single_objectEDpOT0_
FN:1084,_ZSt11make_uniqueI13QuestionTexteJRNSt7__cxx1112basic_stringIcSt11char_traitsIcESaIcEEES7_S7_EENSt8__detail9_MakeUniqIT_E15__single_objectEDpOT0_
FNDA:1,_ZSt11make_uniqueI13QuestionTexteJRNSt7__cxx1112basic_stringIcSt11char_traitsIcESaIcEEES7_S7_EENSt8__detail9_MakeUniqIT_E15__single_objectEDpOT0_
FNF:50
FNH:44
DA:82,1
DA:82,1
DA:82,1
DA:87,0
DA:93,0
DA:94,0
DA:87,0
DA:93,0
DA:94,0
DA:87,3
DA:93,3
DA:94,3
DA:87,0
DA:93,0
DA:94,0
DA:170,1
DA:170,1
DA:170,1
DA:174,1
DA:175,2
DA:174,1
DA:175,2
DA:174,1
DA:175,2
DA:178,6
DA:179,12
DA:180,6
DA:191,4
DA:191,4
DA:191,15
DA:191,4
DA:193,0
DA:195,1
DA:195,1
DA:195,3
DA:195,1
DA:209,1
DA:211,1
DA:212,1
DA:213,1
DA:209,1
DA:211,1
DA:212,1
DA:213,1
DA:209,1
DA:211,1
DA:212,1
DA:213,1
DA:236,6
DA:311,1
DA:312,1
DA:313,1
DA:311,1
DA:312,1
DA:313,1
DA:311,1
DA:312,1
DA:313,1
DA:360,6
DA:374,1
DA:375,2
DA:376,1
DA:374,1
DA:375,2
DA:376,1
DA:374,1
DA:375,2
DA:376,1
DA:393,1
DA:397,1
DA:398,1
DA:399,0
DA:400,1
DA:401,1
DA:393,1
DA:397,1
DA:398,1
DA:399,0
DA:400,1
DA:401,1
DA:393,9
DA:397,9
DA:398,9
DA:399,6
DA:400,9
DA:401,9
DA:393,1
DA:397,1
DA:398,1
DA:399,0
DA:400,1
DA:401,1
DA:463,0
DA:466,0
DA:472,0
DA:473,0
DA:478,1
DA:479,1
DA:478,1
DA:479,1
DA:478,3
DA:479,3
DA:478,1
DA:479,1
DA:497,1
DA:498,1
DA:497,1
DA:498,1
DA:497,1
DA:498,1
DA:1084,1
DA:1085,6
DA:1084,1
DA:1085,7
DA:1084,1
DA:1085,5
LF:116
LH:99
end_of_record
SF:C:\Users\oussa\PROJET-CPP/C:/msys64/ucrt64/include/c++/15.2.0/x86_64-w64-mingw32/bits/c++config.h
DA:589,11
LF:1
LH:1
end_of_record
SF:C:\Users\oussa\PROJET-CPP/C:/msys64/ucrt64/include/c++/15.2.0/bits/char_traits.h
FN:138,_ZN9__gnu_cxx11char_traitsIcE2eqERKcS3_
FNDA:0,_ZN9__gnu_cxx11char_traitsIcE2eqERKcS3_
FN:201,_ZN9__gnu_cxx11char_traitsIcE6lengthEPKc
FNDA:0,_ZN9__gnu_cxx11char_traitsIcE6lengthEPKc
FN:345,_ZNSt11char_traitsIcE6assignERcRKc
FNDA:0,_ZNSt11char_traitsIcE6assignERcRKc
FN:360,_ZNSt11char_traitsIcE2ltERKcS2_
FNDA:0,_ZNSt11char_traitsIcE2ltERKcS2_
FN:368,_ZNSt11char_traitsIcE7compareEPKcS2_y
FNDA:0,_ZNSt11char_traitsIcE7compareEPKcS2_y
FN:387,_ZNSt11char_traitsIcE6lengthEPKc
FNDA:11,_ZNSt11char_traitsIcE6lengthEPKc
FN:421,_ZNSt11char_traitsIcE4copyEPcPKcy
FNDA:0,_ZNSt11char_traitsIcE4copyEPcPKcy
FNF:7
FNH:1
DA:138,0
DA:139,0
DA:201,0
DA:204,0
DA:205,0
DA:206,0
DA:207,0
DA:345,0
DA:352,0
DA:353,0
DA:360,0
DA:363,0
DA:364,0
DA:368,0
DA:370,0
DA:371,0
DA:373,0
DA:375,0
DA:376,0
DA:377,0
DA:378,0
DA:379,0
DA:380,0
DA:383,0
DA:387,11
DA:390,11
DA:391,0
DA:393,11
DA:421,0
DA:423,0
DA:424,0
DA:429,0
LF:32
LH:3
end_of_record
TN:
SF:C:\Users\oussa\PROJET-CPP/C:/msys64/ucrt64/include/c++/15.2.0/bits/basic_string.h
FN:140,_ZNSt7__cxx1112basic_stringIcSt11char_traitsIcESaIcEE11_S_allocateERS3_y
FNDA:0,_ZNSt7__cxx1112basic_stringIcSt11char_traitsIcESaIcEE11_S_allocateERS3_y
FN:208,_ZNSt7__cxx1112basic_stringIcSt11char_traitsIcESaIcEE12_Alloc_hiderC1EPcOS3_
FNDA:0,_ZNSt7__cxx1112basic_stringIcSt11char_traitsIcESaIcEE12_Alloc_hiderC1EPcOS3_
FN:228,_ZNSt7__cxx1112basic_stringIcSt11char_traitsIcESaIcEE7_M_dataEPc
FNDA:0,_ZNSt7__cxx1112basic_stringIcSt11char_traitsIcESaIcEE7_M_dataEPc
FN:233,_ZNSt7__cxx1112basic_stringIcSt11char_traitsIcESaIcEE9_M_lengthEy
FNDA:0,_ZNSt7__cxx1112basic_stringIcSt11char_traitsIcESaIcEE9_M_lengthEy
FN:238,_ZNKSt7__cxx1112basic_stringIcSt11char_traitsIcESaIcEE7_M_dataEv
FNDA:0,_ZNKSt7__cxx1112basic_stringIcSt11char_traitsIcESaIcEE7_M_dataEv
FN:243,_ZNSt7__cxx1112basic_stringIcSt11char_traitsIcESaIcEE13_M_local_dataEv
FNDA:0,_ZNSt7__cxx1112basic_stringIcSt11char_traitsIcESaIcEE13_M_local_dataEv
FN:254,_ZNKSt7__cxx1112basic_stringIcSt11char_traitsIcESaIcEE13_M_local_dataEv
FNDA:0,_ZNKSt7__cxx1112basic_stringIcSt11char_traitsIcESaIcEE13_M_local_dataEv
FN:265,_ZNSt7__cxx1112basic_stringIcSt11char_traitsIcESaIcEE11_M_capacityEy
FNDA:0,_ZNSt7__cxx1112basic_stringIcSt11char_traitsIcESaIcEE11_M_capacityEy
FN:270,_ZNSt7__cxx1112basic_stringIcSt11char_traitsIcESaIcEE13_M_set_lengthEy
FNDA:0,_ZNSt7__cxx1112basic_stringIcSt11char_traitsIcESaIcEE13_M_set_lengthEy
FN:278,_ZNKSt7__cxx1112basic_stringIcSt11char_traitsIcESaIcEE11_M_is_localEv
FNDA:0,_ZNKSt7__cxx1112basic_stringIcSt11char_traitsIcESaIcEE11_M_is_localEv
FN:296,_ZNSt7__cxx1112basic_stringIcSt11char_traitsIcESaIcEE10_M_disposeEv
FNDA:0,_ZNSt7__cxx1112basic_stringIcSt11char_traitsIcESaIcEE10_M_disposeEv
FN:304,_ZNSt7__cxx1112basic_stringIcSt11char_traitsIcESaIcEE10_M_destroyEy
FNDA:0,_ZNSt7__cxx1112basic_stringIcSt11char_traitsIcESaIcEE10_M_destroyEy
FN:359,_ZNSt7__cxx1112basic_stringIcSt11char_traitsIcESaIcEE16_M_get_allocatorEv
FNDA:0,_ZNSt7__cxx1112basic_stringIcSt11char_traitsIcESaIcEE16_M_get_allocatorEv
FN:364,_ZNKSt7__cxx1112basic_stringIcSt11char_traitsIcESaIcEE16_M_get_allocatorEv
FNDA:0,_ZNKSt7__cxx1112basic_stringIcSt11char_traitsIcESaIcEE16_M_get_allocatorEv
FN:448,_ZNSt7__cxx1112basic_stringIcSt11char_traitsIcESaIcEE7_S_copyEPcPKcy
FNDA:0,_ZNSt7__cxx1112basic_stringIcSt11char_traitsIcESaIcEE7_S_copyEPcPKcy
FN:585,_ZNSt7__cxx1112basic_stringIcSt11char_traitsIcESaIcEEC1Ev
FNDA:0,_ZNSt7__cxx1112basic_stringIcSt11char_traitsIcESaIcEEC1Ev
FN:895,_ZNSt7__cxx1112basic_stringIcSt11char_traitsIcESaIcEED1Ev
FNDA:0,_ZNSt7__cxx1112basic_stringIcSt11char_traitsIcESaIcEED1Ev
FN:1163,_ZNKSt7__cxx1112basic_stringIcSt11char_traitsIcESaIcEE4sizeEv
FNDA:0,_ZNKSt7__cxx1112basic_stringIcSt11char_traitsIcESaIcEE4sizeEv
FN:1175,_ZNKSt7__cxx1112basic_stringIcSt11char_traitsIcESaIcEE6lengthEv
FNDA:0,_ZNKSt7__cxx1112basic_stringIcSt11char_traitsIcESaIcEE6lengthEv
FN:1181,_ZNKSt7__cxx1112basic_stringIcSt11char_traitsIcESaIcEE8max_sizeEv
FNDA:0,_ZNKSt7__cxx1112basic_stringIcSt11char_traitsIcESaIcEE8max_sizeEv
FN:1277,_ZNKSt7__cxx1112basic_stringIcSt11char_traitsIcESaIcEE8capacityEv
FNDA:0,_ZNKSt7__cxx1112basic_stringIcSt11char_traitsIcESaIcEE8capacityEv
FN:2873,_ZNKSt7__cxx1112basic_stringIcSt11char_traitsIcESaIcEE5c_strEv
FNDA:0,_ZNKSt7__cxx1112basic_stringIcSt11char_traitsIcESaIcEE5c_strEv
FN:4454,_ZNSt7__cxx114stoiERKNS_12basic_stringIcSt11char_traitsIcESaIcEEEPyi
FNDA:0,_ZNSt7__cxx114stoiERKNS_12basic_stringIcSt11char_traitsIcESaIcEEEPyi
FN:4530,_ZNSt7__cxx119to_stringEi
FNDA:0,_ZNSt7__cxx119to_stringEi
FN:4539,_ZZNSt7__cxx119to_stringEiENKUlPcyE_clES0_y
FNDA:0,_ZZNSt7__cxx119to_stringEiENKUlPcyE_clES0_y
FNF:25
FNH:0
DA:140,0
DA:142,0
DA:152,0
DA:208,0
DA:209,0
DA:228,0
DA:229,0
DA:233,0
DA:234,0
DA:238,0
DA:239,0
DA:243,0
DA:246,0
DA:254,0
DA:257,0
DA:265,0
DA:266,0
DA:270,0
DA:272,0
DA:273,0
DA:274,0
DA:278,0
DA:280,0
DA:282,0
DA:283,0
DA:284,0
DA:286,0
DA:296,0
DA:298,0
DA:299,0
DA:300,0
DA:304,0
DA:305,0
DA:359,0
DA:360,0
DA:364,0
DA:365,0
DA:378,0
DA:448,0
DA:450,0
DA:451,0
DA:453,0
DA:454,0
DA:585,0
DA:590,0
DA:593,0
DA:594,0
DA:895,0
DA:896,0
DA:1163,0
DA:1165,0
DA:1166,0
DA:1167,0
DA:1168,0
DA:1175,0
DA:1176,0
DA:1181,0
DA:1183,0
DA:1185,0
DA:1186,0
DA:1277,0
DA:1279,0
DA:1281,0
DA:1282,0
DA:1283,0
DA:2873,0
DA:2874,0
DA:4454,0
DA:4455,0
DA:4456,0
DA:4530,0
DA:4535,0
DA:4536,0
DA:4537,0
DA:4538,0
DA:4539,0
DA:4540,0
DA:4541,0
DA:4542,0
DA:4544,0
LF:80
LH:0
end_of_record
SF:C:\Users\oussa\PROJET-CPP/QuestionNum.cpp
FN:6,_ZN17QuestionNumeriqueC2ERKNSt7__cxx1112basic_stringIcSt11char_traitsIcESaIcEEES7_iii
FNDA:1,_ZN17QuestionNumeriqueC2ERKNSt7__cxx1112basic_stringIcSt11char_traitsIcESaIcEEES7_iii
FN:9,_ZNK17QuestionNumerique19verificationreponseERKNSt7__cxx1112basic_stringIcSt11char_traitsIcESaIcEEE
FNDA:0,_ZNK17QuestionNumerique19verificationreponseERKNSt7__cxx1112basic_stringIcSt11char_traitsIcESaIcEEE
FN:19,_ZNK17QuestionNumerique12BonneReponseB5cxx11Ev
FNDA:0,_ZNK17QuestionNumerique12BonneReponseB5cxx11Ev
FN:22,_ZNK17QuestionNumerique11sauvegarderERSt14basic_ofstreamIcSt11char_traitsIcEE
FNDA:0,_ZNK17QuestionNumerique11sauvegarderERSt14basic_ofstreamIcSt11char_traitsIcEE
FN:30,_ZNK17QuestionNumerique16afficherquestionEv
FNDA:0,_ZNK17QuestionNumerique16afficherquestionEv
FNF:5
FNH:1
DA:6,1
DA:7,1
DA:9,0
DA:10,0
DA:11,0
DA:12,0
DA:14,0
DA:19,0
DA:20,0
DA:22,0
DA:23,0
DA:24,0
DA:25,0
DA:26,0
DA:27,0
DA:28,0
DA:29,0
DA:30,0
DA:31,0
DA:32,0
DA:33,0
LF:21
LH:2
end_of_record
SF:C:\Users\oussa\PROJET-CPP/C:/msys64/ucrt64/include/c++/15.2.0/ext/string_conversions.h
FN:58,_ZN9__gnu_cxx6__stoaIlicJiEEET0_PFT_PKT1_PPS3_DpT2_EPKcS5_PyS9_
FNDA:0,_ZN9__gnu_cxx6__stoaIlicJiEEET0_PFT_PKT1_PPS3_DpT2_EPKcS5_PyS9_
FN:67,_ZZN9__gnu_cxx6__stoaIlicJiEEET0_PFT_PKT1_PPS3_DpT2_EPKcS5_PyS9_EN11_Save_errnoC1Ev
FNDA:0,_ZZN9__gnu_cxx6__stoaIlicJiEEET0_PFT_PKT1_PPS3_DpT2_EPKcS5_PyS9_EN11_Save_errnoC1Ev
FN:68,_ZZN9__gnu_cxx6__stoaIlicJiEEET0_PFT_PKT1_PPS3_DpT2_EPKcS5_PyS9_EN11_Save_errnoD1Ev
FNDA:0,_ZZN9__gnu_cxx6__stoaIlicJiEEET0_PFT_PKT1_PPS3_DpT2_EPKcS5_PyS9_EN11_Save_errnoD1Ev
FN:77,_ZZN9__gnu_cxx6__stoaIlicJiEEET0_PFT_PKT1_PPS3_DpT2_EPKcS5_PyS9_EN10_Range_chk6_S_chkElSt17integral_constantIbLb1EE
FNDA:0,_ZZN9__gnu_cxx6__stoaIlicJiEEET0_PFT_PKT1_PPS3_DpT2_EPKcS5_PyS9_EN10_Range_chk6_S_chkElSt17integral_constantIbLb1EE
FNF:4
FNH:0
DA:58,0
DA:67,0
DA:68,0
DA:70,0
DA:77,0
DA:80,0
DA:84,0
DA:86,0
DA:87,0
DA:88,0
DA:89,0
DA:90,0
DA:92,0
DA:94,0
DA:95,0
DA:97,0
DA:98,0
LF:17
LH:0
end_of_record
SF:C:\Users\oussa\PROJET-CPP/Question.h
FN:16,_ZN8QuestionD2Ev
FNDA:3,_ZN8QuestionD2Ev
FNF:1
FNH:1
DA:16,3
LF:1
LH:1
end_of_record
SF:C:\Users\oussa\PROJET-CPP/C:/msys64/ucrt64/include/c++/15.2.0/bits/char_traits.h
FN:345,_ZNSt11char_traitsIcE6assignERcRKc
FNDA:0,_ZNSt11char_traitsIcE6assignERcRKc
FN:421,_ZNSt11char_traitsIcE4copyEPcPKcy
FNDA:0,_ZNSt11char_traitsIcE4copyEPcPKcy
FNF:2
FNH:0
DA:345,0
DA:352,0
DA:353,0
DA:421,0
DA:423,0
DA:424,0
DA:429,0
LF:7
LH:0
end_of_record
SF:C:\Users\oussa\PROJET-CPP/C:/msys64/ucrt64/include/c++/15.2.0/bits/new_allocator.h
FN:104,_ZNSt15__new_allocatorIcED2Ev
FNDA:0,_ZNSt15__new_allocatorIcED2Ev
FN:126,_ZNSt15__new_allocatorIcE8allocateEyPKv
FNDA:0,_ZNSt15__new_allocatorIcE8allocateEyPKv
FN:156,_ZNSt15__new_allocatorIcE10deallocateEPcy
FNDA:0,_ZNSt15__new_allocatorIcE10deallocateEPcy
FNF:3
FNH:0
DA:88,0
DA:92,0
DA:104,0
DA:126,0
DA:134,0
DA:140,0
DA:151,0
DA:156,0
DA:172,0
DA:183,0
DA:233,0
LF:11
LH:0
end_of_record
SF:C:\Users\oussa\PROJET-CPP/QuestionNum.h
LF:0
LH:0
end_of_record
SF:C:\Users\oussa\PROJET-CPP/C:/msys64/ucrt64/include/c++/15.2.0/bits/allocator.h
DA:168,0
DA:173,0
DA:189,0
LF:3
LH:0
end_of_record
SF:C:\Users\oussa\PROJET-CPP/C:/msys64/ucrt64/include/c++/15.2.0/bits/stl_algobase.h
FN:234,_ZSt3minIyERKT_S2_S2_
FNDA:0,_ZSt3minIyERKT_S2_S2_
FNF:1
FNH:0
DA:234,0
DA:239,0
DA:240,0
DA:241,0
LF:4
LH:0
end_of_record
SF:C:\Users\oussa\PROJET-CPP/C:/msys64/ucrt64/include/c++/15.2.0/bits/charconv.h
FN:57,_ZNSt8__detail14__to_chars_lenIjEEjT_i
FNDA:0,_ZNSt8__detail14__to_chars_lenIjEEjT_i
FN:83,_ZNSt8__detail18__to_chars_10_implIjEEvPcjT_
FNDA:0,_ZNSt8__detail18__to_chars_10_implIjEEvPcjT_
FNF:2
FNH:0
DA:57,0
DA:63,0
DA:64,0
DA:65,0
DA:66,0
DA:69,0
DA:70,0
DA:71,0
DA:72,0
DA:73,0
DA:74,0
DA:83,0
DA:89,0
DA:95,0
DA:96,0
DA:98,0
DA:99,0
DA:100,0
DA:101,0
DA:102,0
DA:104,0
DA:106,0
DA:107,0
DA:108,0
DA:111,0
DA:112,0
LF:26
LH:0
end_of_record
SF:C:\Users\oussa\PROJET-CPP/C:/msys64/ucrt64/include/c++/15.2.0/bits/basic_string.tcc
FN:143,_ZNSt7__cxx1112basic_stringIcSt11char_traitsIcESaIcEE9_M_createERyy
FNDA:0,_ZNSt7__cxx1112basic_stringIcSt11char_traitsIcESaIcEE9_M_createERyy
FN:335,_ZNSt7__cxx1112basic_stringIcSt11char_traitsIcESaIcEE7reserveEy
FNDA:0,_ZNSt7__cxx1112basic_stringIcSt11char_traitsIcESaIcEE7reserveEy
FN:614,_ZNSt7__cxx1112basic_stringIcSt11char_traitsIcESaIcEE22__resize_and_overwriteIZNS_9to_stringEiEUlPcyE_EEvyT_
FNDA:0,_ZNSt7__cxx1112basic_stringIcSt11char_traitsIcESaIcEE22__resize_and_overwriteIZNS_9to_stringEiEUlPcyE_EEvyT_
FN:628,_ZZNSt7__cxx1112basic_stringIcSt11char_traitsIcESaIcEE22__resize_and_overwriteIZNS_9to_stringEiEUlPcyE_EEvyT_EN11_TerminatorD1Ev
FNDA:0,_ZZNSt7__cxx1112basic_stringIcSt11char_traitsIcESaIcEE22__resize_and_overwriteIZNS_9to_stringEiEUlPcyE_EEvyT_EN11_TerminatorD1Ev
FNF:4
FNH:0
DA:143,0
DA:148,0
DA:149,0
DA:154,0
DA:156,0
DA:158,0
DA:159,0
DA:164,0
DA:335,0
DA:338,0
DA:343,0
DA:344,0
DA:346,0
DA:347,0
DA:348,0
DA:349,0
DA:350,0
DA:614,0
DA:621,0
DA:622,0
DA:628,0
DA:632,0
DA:633,0
DA:641,0
DA:642,0
DA:643,0
DA:644,0
LF:27
LH:0
end_of_record
SF:C:\Users\oussa\PROJET-CPP/C:/msys64/ucrt64/include/c++/15.2.0/bits/ptr_traits.h
FN:134,_ZNSt19__ptr_traits_ptr_toIPKcS0_Lb0EE10pointer_toERS0_
FNDA:0,_ZNSt19__ptr_traits_ptr_toIPKcS0_Lb0EE10pointer_toERS0_
FN:134,_ZNSt19__ptr_traits_ptr_toIPccLb0EE10pointer_toERc
FNDA:0,_ZNSt19__ptr_traits_ptr_toIPccLb0EE10pointer_toERc
FNF:2
FNH:0
DA:134,0
DA:135,0
DA:134,0
DA:135,0
LF:4
LH:0
end_of_record
SF:C:\Users\oussa\PROJET-CPP/C:/msys64/ucrt64/include/c++/15.2.0/bits/move.h
DA:53,0
DA:139,0
DA:177,0
LF:3
LH:0
end_of_record
SF:C:\Users\oussa\PROJET-CPP/C:/msys64/ucrt64/include/c++/15.2.0/bits/alloc_traits.h
DA:614,0
DA:649,0
DA:712,0
LF:3
LH:0
end_of_record
TN:
SF:C:\Users\oussa\PROJET-CPP/C:/msys64/ucrt64/include/c++/15.2.0/bits/stl_uninitialized.h
FN:113,_ZNSt19_UninitDestroyGuardIPNSt7__cxx1112basic_stringIcSt11char_traitsIcESaIcEEEvEC1ERS6_
FNDA:1,_ZNSt19_UninitDestroyGuardIPNSt7__cxx1112basic_stringIcSt11char_traitsIcESaIcEEEvEC1ERS6_
FN:118,_ZNSt19_UninitDestroyGuardIPNSt7__cxx1112basic_stringIcSt11char_traitsIcESaIcEEEvED1Ev
FNDA:1,_ZNSt19_UninitDestroyGuardIPNSt7__cxx1112basic_stringIcSt11char_traitsIcESaIcEEEvED1Ev
FN:125,_ZNSt19_UninitDestroyGuardIPNSt7__cxx1112basic_stringIcSt11char_traitsIcESaIcEEEvE7releaseEv
FNDA:1,_ZNSt19_UninitDestroyGuardIPNSt7__cxx1112basic_stringIcSt11char_traitsIcESaIcEEEvE7releaseEv
FN:140,_ZSt16__do_uninit_copyIN9__gnu_cxx17__normal_iteratorIPKNSt7__cxx1112basic_stringIcSt11char_traitsIcESaIcEEESt6vectorIS7_SaIS7_EEEESD_PS7_ET1_T_T0_SF_
FNDA:1,_ZSt16__do_uninit_copyIN9__gnu_cxx17__normal_iteratorIPKNSt7__cxx1112basic_stringIcSt11char_traitsIcESaIcEEESt6vectorIS7_SaIS7_EEEESD_PS7_ET1_T_T0_SF_
FN:231,_ZSt18uninitialized_copyIN9__gnu_cxx17__normal_iteratorIPKNSt7__cxx1112basic_stringIcSt11char_traitsIcESaIcEEESt6vectorIS7_SaIS7_EEEEPS7_ET0_T_SG_SF_
FNDA:1,_ZSt18uninitialized_copyIN9__gnu_cxx17__normal_iteratorIPKNSt7__cxx1112basic_stringIcSt11char_traitsIcESaIcEEESt6vectorIS7_SaIS7_EEEEPS7_ET0_T_SG_SF_
FN:613,_ZSt22__uninitialized_copy_aIN9__gnu_cxx17__normal_iteratorIPKNSt7__cxx1112basic_stringIcSt11char_traitsIcESaIcEEESt6vectorIS7_SaIS7_EEEESD_PS7_S7_ET1_T_T0_SF_RSaIT2_E
FNDA:1,_ZSt22__uninitialized_copy_aIN9__gnu_cxx17__normal_iteratorIPKNSt7__cxx1112basic_stringIcSt11char_traitsIcESaIcEEESt6vectorIS7_SaIS7_EEEESD_PS7_S7_ET1_T_T0_SF_RSaIT2_E
FNF:6
FNH:6
DA:113,1
DA:114,1
DA:115,1
DA:118,1
DA:120,1
DA:121,0
DA:122,1
DA:125,1
DA:140,1
DA:143,1
DA:144,8
DA:145,6
DA:146,1
DA:147,1
DA:148,1
DA:231,1
DA:266,1
DA:613,1
DA:637,1
LF:19
LH:18
end_of_record
SF:C:\Users\oussa\PROJET-CPP/C:/msys64/ucrt64/include/c++/15.2.0/bits/char_traits.h
FN:345,_ZNSt11char_traitsIcE6assignERcRKc
FNDA:0,_ZNSt11char_traitsIcE6assignERcRKc
FN:421,_ZNSt11char_traitsIcE4copyEPcPKcy
FNDA:0,_ZNSt11char_traitsIcE4copyEPcPKcy
FNF:2
FNH:0
DA:345,0
DA:352,0
DA:353,0
DA:421,0
DA:423,0
DA:424,0
DA:429,0
LF:7
LH:0
end_of_record
SF:C:\Users\oussa\PROJET-CPP/Question.h
FN:16,_ZN8QuestionD2Ev
FNDA:0,_ZN8QuestionD2Ev
FNF:1
FNH:0
DA:16,0
LF:1
LH:0
end_of_record
SF:C:\Users\oussa\PROJET-CPP/C:/msys64/ucrt64/include/c++/15.2.0/ext/string_conversions.h
FN:58,_ZN9__gnu_cxx6__stoaIlicJiEEET0_PFT_PKT1_PPS3_DpT2_EPKcS5_PyS9_
FNDA:0,_ZN9__gnu_cxx6__stoaIlicJiEEET0_PFT_PKT1_PPS3_DpT2_EPKcS5_PyS9_
FN:67,_ZZN9__gnu_cxx6__stoaIlicJiEEET0_PFT_PKT1_PPS3_DpT2_EPKcS5_PyS9_EN11_Save_errnoC1Ev
FNDA:0,_ZZN9__gnu_cxx6__stoaIlicJiEEET0_PFT_PKT1_PPS3_DpT2_EPKcS5_PyS9_EN11_Save_errnoC1Ev
FN:68,_ZZN9__gnu_cxx6__stoaIlicJiEEET0_PFT_PKT1_PPS3_DpT2_EPKcS5_PyS9_EN11_Save_errnoD1Ev
FNDA:0,_ZZN9__gnu_cxx6__stoaIlicJiEEET0_PFT_PKT1_PPS3_DpT2_EPKcS5_PyS9_EN11_Save_errnoD1Ev
FN:77,_ZZN9__gnu_cxx6__stoaIlicJiEEET0_PFT_PKT1_PPS3_DpT2_EPKcS5_PyS9_EN10_Range_chk6_S_chkElSt17integral_constantIbLb1EE
FNDA:0,_ZZN9__gnu_cxx6__stoaIlicJiEEET0_PFT_PKT1_PPS3_DpT2_EPKcS5_PyS9_EN10_Range_chk6_S_chkElSt17integral_constantIbLb1EE
FNF:4
FNH:0
DA:58,0
DA:67,0
DA:68,0
DA:70,0
DA:77,0
DA:80,0
DA:84,0
DA:86,0
DA:87,0
DA:88,0
DA:89,0
DA:90,0
DA:92,0
DA:94,0
DA:95,0
DA:97,0
DA:98,0
LF:17
LH:0
end_of_record
SF:C:\Users\oussa\PROJET-CPP/QuestionQCM.h
LF:0
LH:0
end_of_record
SF:C:\Users\oussa\PROJET-CPP/C:/msys64/ucrt64/include/c++/15.2.0/bits/basic_string.h
FN:140,_ZNSt7__cxx1112basic_stringIcSt11char_traitsIcESaIcEE11_S_allocateERS3_y
FNDA:0,_ZNSt7__cxx1112basic_stringIcSt11char_traitsIcESaIcEE11_S_allocateERS3_y
FN:208,_ZNSt7__cxx1112basic_stringIcSt11char_traitsIcESaIcEE12_Alloc_hiderC1EPcOS3_
FNDA:0,_ZNSt7__cxx1112basic_stringIcSt11char_traitsIcESaIcEE12_Alloc_hiderC1EPcOS3_
FN:228,_ZNSt7__cxx1112basic_stringIcSt11char_traitsIcESaIcEE7_M_dataEPc
FNDA:0,_ZNSt7__cxx1112basic_stringIcSt11char_traitsIcESaIcEE7_M_dataEPc
FN:233,_ZNSt7__cxx1112basic_stringIcSt11char_traitsIcESaIcEE9_M_lengthEy
FNDA:0,_ZNSt7__cxx1112basic_stringIcSt11char_traitsIcESaIcEE9_M_lengthEy
FN:238,_ZNKSt7__cxx1112basic_stringIcSt11char_traitsIcESaIcEE7_M_dataEv
FNDA:0,_ZNKSt7__cxx1112basic_stringIcSt11char_traitsIcESaIcEE7_M_dataEv
FN:243,_ZNSt7__cxx1112basic_stringIcSt11char_traitsIcESaIcEE13_M_local_dataEv
FNDA:0,_ZNSt7__cxx1112basic_stringIcSt11char_traitsIcESaIcEE13_M_local_dataEv
FN:254,_ZNKSt7__cxx1112basic_stringIcSt11char_traitsIcESaIcEE13_M_local_dataEv
FNDA:0,_ZNKSt7__cxx1112basic_stringIcSt11char_traitsIcESaIcEE13_M_local_dataEv
FN:265,_ZNSt7__cxx1112basic_stringIcSt11char_traitsIcESaIcEE11_M_capacityEy
FNDA:0,_ZNSt7__cxx1112basic_stringIcSt11char_traitsIcESaIcEE11_M_capacityEy
FN:270,_ZNSt7__cxx1112basic_stringIcSt11char_traitsIcESaIcEE13_M_set_lengthEy
FNDA:0,_ZNSt7__cxx1112basic_stringIcSt11char_traitsIcESaIcEE13_M_set_lengthEy
FN:278,_ZNKSt7__cxx1112basic_stringIcSt11char_traitsIcESaIcEE11_M_is_localEv
FNDA:0,_ZNKSt7__cxx1112basic_stringIcSt11char_traitsIcESaIcEE11_M_is_localEv
FN:296,_ZNSt7__cxx1112basic_stringIcSt11char_traitsIcESaIcEE10_M_disposeEv
FNDA:0,_ZNSt7__cxx1112basic_stringIcSt11char_traitsIcESaIcEE10_M_disposeEv
FN:304,_ZNSt7__cxx1112basic_stringIcSt11char_traitsIcESaIcEE10_M_destroyEy
FNDA:0,_ZNSt7__cxx1112basic_stringIcSt11char_traitsIcESaIcEE10_M_destroyEy
FN:359,_ZNSt7__cxx1112basic_stringIcSt11char_traitsIcESaIcEE16_M_get_allocatorEv
FNDA:0,_ZNSt7__cxx1112basic_stringIcSt11char_traitsIcESaIcEE16_M_get_allocatorEv
FN:364,_ZNKSt7__cxx1112basic_stringIcSt11char_traitsIcESaIcEE16_M_get_allocatorEv
FNDA:0,_ZNKSt7__cxx1112basic_stringIcSt11char_traitsIcESaIcEE16_M_get_allocatorEv
FN:448,_ZNSt7__cxx1112basic_stringIcSt11char_traitsIcESaIcEE7_S_copyEPcPKcy
FNDA:0,_ZNSt7__cxx1112basic_stringIcSt11char_traitsIcESaIcEE7_S_copyEPcPKcy
FN:585,_ZNSt7__cxx1112basic_stringIcSt11char_traitsIcESaIcEEC1Ev
FNDA:0,_ZNSt7__cxx1112basic_stringIcSt11char_traitsIcESaIcEEC1Ev
FN:613,_ZNSt7__cxx1112basic_stringIcSt11char_traitsIcESaIcEEC1ERKS4_
FNDA:0,_ZNSt7__cxx1112basic_stringIcSt11char_traitsIcESaIcEEC1ERKS4_
FN:895,_ZNSt7__cxx1112basic_stringIcSt11char_traitsIcESaIcEED1Ev
FNDA:0,_ZNSt7__cxx1112basic_stringIcSt11char_traitsIcESaIcEED1Ev
FN:1163,_ZNKSt7__cxx1112basic_stringIcSt11char_traitsIcESaIcEE4sizeEv
FNDA:0,_ZNKSt7__cxx1112basic_stringIcSt11char_traitsIcESaIcEE4sizeEv
FN:1175,_ZNKSt7__cxx1112basic_stringIcSt11char_traitsIcESaIcEE6lengthEv
FNDA:0,_ZNKSt7__cxx1112basic_stringIcSt11char_traitsIcESaIcEE6lengthEv
FN:1181,_ZNKSt7__cxx1112basic_stringIcSt11char_traitsIcESaIcEE8max_sizeEv
FNDA:0,_ZNKSt7__cxx1112basic_stringIcSt11char_traitsIcESaIcEE8max_sizeEv
FN:1277,_ZNKSt7__cxx1112basic_stringIcSt11char_traitsIcESaIcEE8capacityEv
FNDA:0,_ZNKSt7__cxx1112basic_stringIcSt11char_traitsIcESaIcEE8capacityEv
FN:2873,_ZNKSt7__cxx1112basic_stringIcSt11char_traitsIcESaIcEE5c_strEv
FNDA:0,_ZNKSt7__cxx1112basic_stringIcSt11char_traitsIcESaIcEE5c_strEv
FN:4454,_ZNSt7__cxx114stoiERKNS_12basic_stringIcSt11char_traitsIcESaIcEEEPyi
FNDA:0,_ZNSt7__cxx114stoiERKNS_12basic_stringIcSt11char_traitsIcESaIcEEEPyi
FN:4530,_ZNSt7__cxx119to_stringEi
FNDA:0,_ZNSt7__cxx119to_stringEi
FN:4539,_ZZNSt7__cxx119to_stringEiENKUlPcyE_clES0_y
FNDA:0,_ZZNSt7__cxx119to_stringEiENKUlPcyE_clES0_y
FNF:26
FNH:0
DA:140,0
DA:142,0
DA:152,0
DA:208,0
DA:209,0
DA:228,0
DA:229,0
DA:233,0
DA:234,0
DA:238,0
DA:239,0
DA:243,0
DA:246,0
DA:254,0
DA:257,0
DA:265,0
DA:266,0
DA:270,0
DA:272,0
DA:273,0
DA:274,0
DA:278,0
DA:280,0
DA:282,0
DA:283,0
DA:284,0
DA:286,0
DA:296,0
DA:298,0
DA:299,0
DA:300,0
DA:304,0
DA:305,0
DA:359,0
DA:360,0
DA:364,0
DA:365,0
DA:378,0
DA:448,0
DA:450,0
DA:451,0
DA:453,0
DA:454,0
DA:585,0
DA:590,0
DA:593,0
DA:594,0
DA:613,0
DA:614,0
DA:615,0
DA:617,0
DA:618,0
DA:895,0
DA:896,0
DA:1163,0
DA:1165,0
DA:1166,0
DA:1167,0
DA:1168,0
DA:1175,0
DA:1176,0
DA:1181,0
DA:1183,0
DA:1185,0
DA:1186,0
DA:1277,0
DA:1279,0
DA:1281,0
DA:1282,0
DA:1283,0
DA:2873,0
DA:2874,0
DA:4454,0
DA:4455,0
DA:4456,0
DA:4530,0
DA:4535,0
DA:4536,0
DA:4537,0
DA:4538,0
DA:4539,0
DA:4540,0
DA:4541,0
DA:4542,0
DA:4544,0
LF:85
LH:0
end_of_record
SF:C:\Users\oussa\PROJET-CPP/C:/msys64/ucrt64/include/c++/15.2.0/bits/stl_iterator.h
DA:1058,2
DA:1059,2
DA:1090,3
DA:1103,3
DA:1104,3
DA:1166,4
DA:1247,8
LF:7
LH:7
end_of_record
SF:C:\Users\oussa\PROJET-CPP/C:/msys64/ucrt64/include/c++/15.2.0/bits/stl_vector.h
FN:105,_ZNSt12_Vector_baseINSt7__cxx1112basic_stringIcSt11char_traitsIcESaIcEEESaIS5_EE17_Vector_impl_dataC2Ev
FNDA:2,_ZNSt12_Vector_baseINSt7__cxx1112basic_stringIcSt11char_traitsIcESaIcEEESaIS5_EE17_Vector_impl_dataC2Ev
FN:152,_ZNSt12_Vector_baseINSt7__cxx1112basic_stringIcSt11char_traitsIcESaIcEEESaIS5_EE12_Vector_implC1ERKS6_
FNDA:1,_ZNSt12_Vector_baseINSt7__cxx1112basic_stringIcSt11char_traitsIcESaIcEEESaIS5_EE12_Vector_implC1ERKS6_
FN:307,_ZNSt12_Vector_baseINSt7__cxx1112basic_stringIcSt11char_traitsIcESaIcEEESaIS5_EE19_M_get_Tp_allocatorEv
FNDA:6,_ZNSt12_Vector_baseINSt7__cxx1112basic_stringIcSt11char_traitsIcESaIcEEESaIS5_EE19_M_get_Tp_allocatorEv
FN:312,_ZNKSt12_Vector_baseINSt7__cxx1112basic_stringIcSt11char_traitsIcESaIcEEESaIS5_EE19_M_get_Tp_allocatorEv
FNDA:7,_ZNKSt12_Vector_baseINSt7__cxx1112basic_stringIcSt11char_traitsIcESaIcEEESaIS5_EE19_M_get_Tp_allocatorEv
FN:339,_ZNSt12_Vector_baseINSt7__cxx1112basic_stringIcSt11char_traitsIcESaIcEEESaIS5_EEC2EyRKS6_
FNDA:1,_ZNSt12_Vector_baseINSt7__cxx1112basic_stringIcSt11char_traitsIcESaIcEEESaIS5_EEC2EyRKS6_
FN:373,_ZNSt12_Vector_baseINSt7__cxx1112basic_stringIcSt11char_traitsIcESaIcEEESaIS5_EED2Ev
FNDA:2,_ZNSt12_Vector_baseINSt7__cxx1112basic_stringIcSt11char_traitsIcESaIcEEESaIS5_EED2Ev
FN:384,_ZNSt12_Vector_baseINSt7__cxx1112basic_stringIcSt11char_traitsIcESaIcEEESaIS5_EE11_M_allocateEy
FNDA:4,_ZNSt12_Vector_baseINSt7__cxx1112basic_stringIcSt11char_traitsIcESaIcEEESaIS5_EE11_M_allocateEy
FN:392,_ZNSt12_Vector_baseINSt7__cxx1112basic_stringIcSt11char_traitsIcESaIcEEESaIS5_EE13_M_deallocateEPS5_y
FNDA:4,_ZNSt12_Vector_baseINSt7__cxx1112basic_stringIcSt11char_traitsIcESaIcEEESaIS5_EE13_M_deallocateEPS5_y
FN:403,_ZNSt12_Vector_baseINSt7__cxx1112basic_stringIcSt11char_traitsIcESaIcEEESaIS5_EE17_M_create_storageEy
FNDA:1,_ZNSt12_Vector_baseINSt7__cxx1112basic_stringIcSt11char_traitsIcESaIcEEESaIS5_EE17_M_create_storageEy
FN:631,_ZNSt6vectorINSt7__cxx1112basic_stringIcSt11char_traitsIcESaIcEEESaIS5_EEC1ERKS7_
FNDA:1,_ZNSt6vectorINSt7__cxx1112basic_stringIcSt11char_traitsIcESaIcEEESaIS5_EEC1ERKS7_
FN:800,_ZNSt6vectorINSt7__cxx1112basic_stringIcSt11char_traitsIcESaIcEEESaIS5_EED1Ev
FNDA:2,_ZNSt6vectorINSt7__cxx1112basic_stringIcSt11char_traitsIcESaIcEEESaIS5_EED1Ev
FN:1008,_ZNKSt6vectorINSt7__cxx1112basic_stringIcSt11char_traitsIcESaIcEEESaIS5_EE5beginEv
FNDA:1,_ZNKSt6vectorINSt7__cxx1112basic_stringIcSt11char_traitsIcESaIcEEESaIS5_EE5beginEv
FN:1028,_ZNKSt6vectorINSt7__cxx1112basic_stringIcSt11char_traitsIcESaIcEEESaIS5_EE3endEv
FNDA:1,_ZNKSt6vectorINSt7__cxx1112basic_stringIcSt11char_traitsIcESaIcEEESaIS5_EE3endEv
FN:1117,_ZNKSt6vectorINSt7__cxx1112basic_stringIcSt11char_traitsIcESaIcEEESaIS5_EE4sizeEv
FNDA:13,_ZNKSt6vectorINSt7__cxx1112basic_stringIcSt11char_traitsIcESaIcEEESaIS5_EE4sizeEv
FN:1280,_ZNKSt6vectorINSt7__cxx1112basic_stringIcSt11char_traitsIcESaIcEEESaIS5_EEixEy
FNDA:0,_ZNKSt6vectorINSt7__cxx1112basic_stringIcSt11char_traitsIcESaIcEEESaIS5_EEixEy
FNF:15
FNH:14
DA:105,2
DA:106,2
DA:107,2
DA:152,1
DA:153,1
DA:154,1
DA:307,6
DA:308,6
DA:312,7
DA:313,7
DA:339,1
DA:340,1
DA:341,1
DA:373,2
DA:375,2
DA:376,2
DA:377,2
DA:384,4
DA:387,8
DA:392,4
DA:395,4
DA:396,4
DA:397,4
DA:403,1
DA:405,1
DA:406,1
DA:407,1
DA:408,1
DA:631,1
DA:633,2
DA:635,1
DA:636,1
DA:637,1
DA:638,1
DA:639,1
DA:800,2
DA:802,2
DA:803,2
DA:805,2
DA:1008,1
DA:1009,1
DA:1028,1
DA:1029,1
DA:1117,13
DA:1119,13
DA:1120,13
DA:1121,0
DA:1122,13
DA:1280,0
DA:1282,0
DA:1283,0
LF:51
LH:47
end_of_record
SF:C:\Users\oussa\PROJET-CPP/C:/msys64/ucrt64/include/c++/15.2.0/bits/stl_construct.h
FN:123,_ZSt10_ConstructINSt7__cxx1112basic_stringIcSt11char_traitsIcESaIcEEEJRKS5_EEvPT_DpOT0_
FNDA:3,_ZSt10_ConstructINSt7__cxx1112basic_stringIcSt11char_traitsIcESaIcEEEJRKS5_EEvPT_DpOT0_
FN:161,_ZSt8_DestroyINSt7__cxx1112basic_stringIcSt11char_traitsIcESaIcEEEEvPT_
FNDA:6,_ZSt8_DestroyINSt7__cxx1112basic_stringIcSt11char_traitsIcESaIcEEEEvPT_
FN:202,_ZSt8_DestroyIPNSt7__cxx1112basic_stringIcSt11char_traitsIcESaIcEEEEvT_S7_
FNDA:2,_ZSt8_DestroyIPNSt7__cxx1112basic_stringIcSt11char_traitsIcESaIcEEEEvT_S7_
FNF:3
FNH:3
DA:123,3
DA:133,6
DA:134,3
DA:161,6
DA:166,6
DA:168,6
DA:202,2
DA:211,8
DA:212,6
DA:222,2
LF:10
LH:10
end_of_record
SF:C:\Users\oussa\PROJET-CPP/QuestionQCM.cpp
FN:3,_ZN11QuestionQCMC2ERKNSt7__cxx1112basic_stringIcSt11char_traitsIcESaIcEEES7_RKSt6vectorIS5_SaIS5_EEi
FNDA:1,_ZN11QuestionQCMC2ERKNSt7__cxx1112basic_stringIcSt11char_traitsIcESaIcEEES7_RKSt6vectorIS5_SaIS5_EEi
FN:6,_ZNK11QuestionQCM19verificationreponseERKNSt7__cxx1112basic_stringIcSt11char_traitsIcESaIcEEE
FNDA:0,_ZNK11QuestionQCM19verificationreponseERKNSt7__cxx1112basic_stringIcSt11char_traitsIcESaIcEEE
FN:9,_ZNK11QuestionQCM12BonneReponseB5cxx11Ev
FNDA:0,_ZNK11QuestionQCM12BonneReponseB5cxx11Ev
FN:12,_ZNK11QuestionQCM11sauvegarderERSt14basic_ofstreamIcSt11char_traitsIcEE
FNDA:0,_ZNK11QuestionQCM11sauvegarderERSt14basic_ofstreamIcSt11char_traitsIcEE
FN:22,_ZNK11QuestionQCM16afficherquestionEv
FNDA:0,_ZNK11QuestionQCM16afficherquestionEv
FNF:5
FNH:1
DA:3,1
DA:4,1
DA:6,0
DA:7,0
DA:9,0
DA:10,0
DA:12,0
DA:13,0
DA:14,0
DA:15,0
DA:16,0
DA:17,0
DA:18,0
DA:20,0
DA:21,0
DA:22,0
DA:23,0
DA:24,0
DA:25,0
DA:27,0
LF:20
LH:2
end_of_record
SF:C:\Users\oussa\PROJET-CPP/C:/msys64/ucrt64/include/c++/15.2.0/bits/move.h
DA:53,9
DA:73,3
DA:139,0
DA:177,0
LF:4
LH:2
end_of_record
SF:C:\Users\oussa\PROJET-CPP/C:/msys64/ucrt64/include/c++/15.2.0/ext/alloc_traits.h
DA:100,1
LF:1
LH:1
end_of_record
SF:C:\Users\oussa\PROJET-CPP/C:/msys64/ucrt64/include/c++/15.2.0/bits/alloc_traits.h
DA:614,4
DA:649,4
DA:712,0
DA:726,1
DA:1045,2
DA:1046,2
LF:6
LH:5
end_of_record
SF:C:\Users\oussa\PROJET-CPP/C:/msys64/ucrt64/include/c++/15.2.0/new
FN:206,_ZnwyPv
FNDA:0,_ZnwyPv
FN:217,_ZdlPvS_
FNDA:0,_ZdlPvS_
FNF:2
FNH:0
DA:206,0
DA:208,0
DA:217,0
DA:219,0
LF:4
LH:0
end_of_record
SF:C:\Users\oussa\PROJET-CPP/C:/msys64/ucrt64/include/c++/15.2.0/bits/ptr_traits.h
FN:134,_ZNSt19__ptr_traits_ptr_toIPKcS0_Lb0EE10pointer_toERS0_
FNDA:0,_ZNSt19__ptr_traits_ptr_toIPKcS0_Lb0EE10pointer_toERS0_
FN:134,_ZNSt19__ptr_traits_ptr_toIPccLb0EE10pointer_toERc
FNDA:0,_ZNSt19__ptr_traits_ptr_toIPccLb0EE10pointer_toERc
FNF:2
FNH:0
DA:134,0
DA:135,0
DA:134,0
DA:135,0
LF:4
LH:0
end_of_record
SF:C:\Users\oussa\PROJET-CPP/C:/msys64/ucrt64/include/c++/15.2.0/bits/charconv.h
FN:57,_ZNSt8__detail14__to_chars_lenIjEEjT_i
FNDA:0,_ZNSt8__detail14__to_chars_lenIjEEjT_i
FN:83,_ZNSt8__detail18__to_chars_10_implIjEEvPcjT_
FNDA:0,_ZNSt8__detail18__to_chars_10_implIjEEvPcjT_
FNF:2
FNH:0
DA:57,0
DA:63,0
DA:64,0
DA:65,0
DA:66,0
DA:69,0
DA:70,0
DA:71,0
DA:72,0
DA:73,0
DA:74,0
DA:83,0
DA:89,0
DA:95,0
DA:96,0
DA:98,0
DA:99,0
DA:100,0
DA:101,0
DA:102,0
DA:104,0
DA:106,0
DA:107,0
DA:108,0
DA:111,0
DA:112,0
LF:26
LH:0
end_of_record
SF:C:\Users\oussa\PROJET-CPP/C:/msys64/ucrt64/include/c++/15.2.0/bits/stl_algobase.h
FN:234,_ZSt3minIyERKT_S2_S2_
FNDA:0,_ZSt3minIyERKT_S2_S2_
FNF:1
FNH:0
DA:234,0
DA:239,0
DA:240,0
DA:241,0
LF:4
LH:0
end_of_record
SF:C:\Users\oussa\PROJET-CPP/C:/msys64/ucrt64/include/c++/15.2.0/bits/basic_string.tcc
FN:143,_ZNSt7__cxx1112basic_stringIcSt11char_traitsIcESaIcEE9_M_createERyy
FNDA:0,_ZNSt7__cxx1112basic_stringIcSt11char_traitsIcESaIcEE9_M_createERyy
FN:286,_ZNSt7__cxx1112basic_stringIcSt11char_traitsIcESaIcEE12_M_constructILb1EEEvPKcy
FNDA:0,_ZNSt7__cxx1112basic_stringIcSt11char_traitsIcESaIcEE12_M_constructILb1EEEvPKcy
FN:335,_ZNSt7__cxx1112basic_stringIcSt11char_traitsIcESaIcEE7reserveEy
FNDA:0,_ZNSt7__cxx1112basic_stringIcSt11char_traitsIcESaIcEE7reserveEy
FN:614,_ZNSt7__cxx1112basic_stringIcSt11char_traitsIcESaIcEE22__resize_and_overwriteIZNS_9to_stringEiEUlPcyE_EEvyT_
FNDA:0,_ZNSt7__cxx1112basic_stringIcSt11char_traitsIcESaIcEE22__resize_and_overwriteIZNS_9to_stringEiEUlPcyE_EEvyT_
FN:628,_ZZNSt7__cxx1112basic_stringIcSt11char_traitsIcESaIcEE22__resize_and_overwriteIZNS_9to_stringEiEUlPcyE_EEvyT_EN11_TerminatorD1Ev
FNDA:0,_ZZNSt7__cxx1112basic_stringIcSt11char_traitsIcESaIcEE22__resize_and_overwriteIZNS_9to_stringEiEUlPcyE_EEvyT_EN11_TerminatorD1Ev
FNF:5
FNH:0
DA:143,0
DA:148,0
DA:149,0
DA:154,0
DA:156,0
DA:158,0
DA:159,0
DA:164,0
DA:286,0
DA:289,0
DA:291,0
DA:292,0
DA:298,0
DA:300,0
DA:303,0
DA:335,0
DA:338,0
DA:343,0
DA:344,0
DA:346,0
DA:347,0
DA:348,0
DA:349,0
DA:350,0
DA:614,0
DA:621,0
DA:622,0
DA:628,0
DA:632,0
DA:633,0
DA:641,0
DA:642,0
DA:643,0
DA:644,0
LF:34
LH:0
end_of_record
SF:C:\Users\oussa\PROJET-CPP/C:/msys64/ucrt64/include/c++/15.2.0/bits/allocator.h
DA:168,0
DA:173,2
DA:189,1
LF:3
LH:2
end_of_record
SF:C:\Users\oussa\PROJET-CPP/C:/msys64/ucrt64/include/c++/15.2.0/bits/new_allocator.h
FN:104,_ZNSt15__new_allocatorINSt7__cxx1112basic_stringIcSt11char_traitsIcESaIcEEEED2Ev
FNDA:3,_ZNSt15__new_allocatorINSt7__cxx1112basic_stringIcSt11char_traitsIcESaIcEEEED2Ev
FN:104,_ZNSt15__new_allocatorIcED2Ev
FNDA:0,_ZNSt15__new_allocatorIcED2Ev
FN:126,_ZNSt15__new_allocatorINSt7__cxx1112basic_stringIcSt11char_traitsIcESaIcEEEE8allocateEyPKv
FNDA:4,_ZNSt15__new_allocatorINSt7__cxx1112basic_stringIcSt11char_traitsIcESaIcEEEE8allocateEyPKv
FN:126,_ZNSt15__new_allocatorIcE8allocateEyPKv
FNDA:0,_ZNSt15__new_allocatorIcE8allocateEyPKv
FN:156,_ZNSt15__new_allocatorINSt7__cxx1112basic_stringIcSt11char_traitsIcESaIcEEEE10deallocateEPS5_y
FNDA:4,_ZNSt15__new_allocatorINSt7__cxx1112basic_stringIcSt11char_traitsIcESaIcEEEE10deallocateEPS5_y
FN:156,_ZNSt15__new_allocatorIcE10deallocateEPcy
FNDA:0,_ZNSt15__new_allocatorIcE10deallocateEPcy
FNF:6
FNH:3
DA:88,0
DA:92,2
DA:104,3
DA:104,0
DA:126,4
DA:134,4
DA:138,0
DA:139,0
DA:140,0
DA:151,4
DA:126,0
DA:134,0
DA:140,0
DA:151,0
DA:156,4
DA:172,4
DA:156,0
DA:172,0
DA:183,0
DA:233,4
LF:20
LH:8
end_of_record
TN:
SF:C:\Users\oussa\PROJET-CPP/C:/msys64/ucrt64/include/c++/15.2.0/bits/alloc_traits.h
DA:614,0
DA:649,0
DA:712,0
DA:726,0
LF:4
LH:0
end_of_record
SF:C:\Users\oussa\PROJET-CPP/C:/msys64/ucrt64/include/c++/15.2.0/ext/alloc_traits.h
DA:100,0
LF:1
LH:0
end_of_record
SF:C:\Users\oussa\PROJET-CPP/C:/msys64/ucrt64/include/c++/15.2.0/bits/move.h
DA:53,0
DA:139,0
DA:177,0
LF:3
LH:0
end_of_record
SF:C:\Users\oussa\PROJET-CPP/C:/msys64/ucrt64/include/c++/15.2.0/bits/ptr_traits.h
FN:134,_ZNSt19__ptr_traits_ptr_toIPKcS0_Lb0EE10pointer_toERS0_
FNDA:0,_ZNSt19__ptr_traits_ptr_toIPKcS0_Lb0EE10pointer_toERS0_
FN:134,_ZNSt19__ptr_traits_ptr_toIPccLb0EE10pointer_toERc
FNDA:0,_ZNSt19__ptr_traits_ptr_toIPccLb0EE10pointer_toERc
FNF:2
FNH:0
DA:134,0
DA:135,0
DA:134,0
DA:135,0
LF:4
LH:0
end_of_record
SF:C:\Users\oussa\PROJET-CPP/QuestionText.cpp
FN:10,_ZN13QuestionTexteC2ERKNSt7__cxx1112basic_stringIcSt11char_traitsIcESaIcEEES7_S7_
FNDA:1,_ZN13QuestionTexteC2ERKNSt7__cxx1112basic_stringIcSt11char_traitsIcESaIcEEES7_S7_
FN:13,_ZNK13QuestionTexte19verificationreponseERKNSt7__cxx1112basic_stringIcSt11char_traitsIcESaIcEEE
FNDA:0,_ZNK13QuestionTexte19verificationreponseERKNSt7__cxx1112basic_stringIcSt11char_traitsIcESaIcEEE
FN:17,_ZNK13QuestionTexte12BonneReponseB5cxx11Ev
FNDA:1,_ZNK13QuestionTexte12BonneReponseB5cxx11Ev
FN:20,_ZNK13QuestionTexte11sauvegarderERSt14basic_ofstreamIcSt11char_traitsIcEE
FNDA:0,_ZNK13QuestionTexte11sauvegarderERSt14basic_ofstreamIcSt11char_traitsIcEE
FN:26,_ZNK13QuestionTexte16afficherquestionEv
FNDA:1,_ZNK13QuestionTexte16afficherquestionEv
FNF:5
FNH:3
DA:10,1
DA:11,1
DA:13,0
DA:14,0
DA:17,1
DA:18,1
DA:20,0
DA:21,0
DA:22,0
DA:23,0
DA:24,0
DA:25,0
DA:26,1
DA:27,1
DA:28,1
LF:15
LH:7
end_of_record
SF:C:\Users\oussa\PROJET-CPP/C:/msys64/ucrt64/include/c++/15.2.0/bits/basic_string.tcc
FN:143,_ZNSt7__cxx1112basic_stringIcSt11char_traitsIcESaIcEE9_M_createERyy
FNDA:0,_ZNSt7__cxx1112basic_stringIcSt11char_traitsIcESaIcEE9_M_createERyy
FN:286,_ZNSt7__cxx1112basic_stringIcSt11char_traitsIcESaIcEE12_M_constructILb1EEEvPKcy
FNDA:0,_ZNSt7__cxx1112basic_stringIcSt11char_traitsIcESaIcEE12_M_constructILb1EEEvPKcy
FNF:2
FNH:0
DA:143,0
DA:148,0
DA:149,0
DA:154,0
DA:156,0
DA:158,0
DA:159,0
DA:164,0
DA:286,0
DA:289,0
DA:291,0
DA:292,0
DA:298,0
DA:300,0
DA:303,0
LF:15
LH:0
end_of_record
SF:C:\Users\oussa\PROJET-CPP/C:/msys64/ucrt64/include/c++/15.2.0/bits/stl_algobase.h
FN:234,_ZSt3minIyERKT_S2_S2_
FNDA:0,_ZSt3minIyERKT_S2_S2_
FNF:1
FNH:0
DA:234,0
DA:239,0
DA:240,0
DA:241,0
LF:4
LH:0
end_of_record
SF:C:\Users\oussa\PROJET-CPP/C:/msys64/ucrt64/include/c++/15.2.0/bits/allocator.h
DA:173,0
DA:189,0
LF:2
LH:0
end_of_record
SF:C:\Users\oussa\PROJET-CPP/C:/msys64/ucrt64/include/c++/15.2.0/bits/new_allocator.h
FN:104,_ZNSt15__new_allocatorIcED2Ev
FNDA:0,_ZNSt15__new_allocatorIcED2Ev
FN:126,_ZNSt15__new_allocatorIcE8allocateEyPKv
FNDA:0,_ZNSt15__new_allocatorIcE8allocateEyPKv
FN:156,_ZNSt15__new_allocatorIcE10deallocateEPcy
FNDA:0,_ZNSt15__new_allocatorIcE10deallocateEPcy
FNF:3
FNH:0
DA:92,0
DA:104,0
DA:126,0
DA:134,0
DA:140,0
DA:151,0
DA:156,0
DA:172,0
DA:183,0
DA:233,0
LF:10
LH:0
end_of_record
SF:C:\Users\oussa\PROJET-CPP/C:/msys64/ucrt64/include/c++/15.2.0/bits/char_traits.h
FN:345,_ZNSt11char_traitsIcE6assignERcRKc
FNDA:0,_ZNSt11char_traitsIcE6assignERcRKc
FN:360,_ZNSt11char_traitsIcE2ltERKcS2_
FNDA:0,_ZNSt11char_traitsIcE2ltERKcS2_
FN:368,_ZNSt11char_traitsIcE7compareEPKcS2_y
FNDA:4,_ZNSt11char_traitsIcE7compareEPKcS2_y
FN:421,_ZNSt11char_traitsIcE4copyEPcPKcy
FNDA:0,_ZNSt11char_traitsIcE4copyEPcPKcy
FNF:4
FNH:1
DA:345,0
DA:352,0
DA:353,0
DA:360,0
DA:363,0
DA:364,0
DA:368,4
DA:370,4
DA:371,0
DA:373,4
DA:375,0
DA:376,0
DA:377,0
DA:378,0
DA:379,0
DA:380,0
DA:383,4
DA:421,0
DA:423,0
DA:424,0
DA:429,0
LF:21
LH:4
end_of_record
SF:C:\Users\oussa\PROJET-CPP/Question.h
FN:16,_ZN8QuestionD2Ev
FNDA:0,_ZN8QuestionD2Ev
FNF:1
FNH:0
DA:16,0
LF:1
LH:0
end_of_record
SF:C:\Users\oussa\PROJET-CPP/C:/msys64/ucrt64/include/c++/15.2.0/x86_64-w64-mingw32/bits/c++config.h
DA:589,4
LF:1
LH:1
end_of_record
SF:C:\Users\oussa\PROJET-CPP/QuestionText.h
LF:0
LH:0
end_of_record
SF:C:\Users\oussa\PROJET-CPP/C:/msys64/ucrt64/include/c++/15.2.0/bits/basic_string.h
FN:140,_ZNSt7__cxx1112basic_stringIcSt11char_traitsIcESaIcEE11_S_allocateERS3_y
FNDA:0,_ZNSt7__cxx1112basic_stringIcSt11char_traitsIcESaIcEE11_S_allocateERS3_y
FN:208,_ZNSt7__cxx1112basic_stringIcSt11char_traitsIcESaIcEE12_Alloc_hiderC1EPcOS3_
FNDA:0,_ZNSt7__cxx1112basic_stringIcSt11char_traitsIcESaIcEE12_Alloc_hiderC1EPcOS3_
FN:228,_ZNSt7__cxx1112basic_stringIcSt11char_traitsIcESaIcEE7_M_dataEPc
FNDA:0,_ZNSt7__cxx1112basic_stringIcSt11char_traitsIcESaIcEE7_M_dataEPc
FN:233,_ZNSt7__cxx1112basic_stringIcSt11char_traitsIcESaIcEE9_M_lengthEy
FNDA:0,_ZNSt7__cxx1112basic_stringIcSt11char_traitsIcESaIcEE9_M_lengthEy
FN:238,_ZNKSt7__cxx1112basic_stringIcSt11char_traitsIcESaIcEE7_M_dataEv
FNDA:0,_ZNKSt7__cxx1112basic_stringIcSt11char_traitsIcESaIcEE7_M_dataEv
FN:243,_ZNSt7__cxx1112basic_stringIcSt11char_traitsIcESaIcEE13_M_local_dataEv
FNDA:0,_ZNSt7__cxx1112basic_stringIcSt11char_traitsIcESaIcEE13_M_local_dataEv
FN:254,_ZNKSt7__cxx1112basic_stringIcSt11char_traitsIcESaIcEE13_M_local_dataEv
FNDA:0,_ZNKSt7__cxx1112basic_stringIcSt11char_traitsIcESaIcEE13_M_local_dataEv
FN:265,_ZNSt7__cxx1112basic_stringIcSt11char_traitsIcESaIcEE11_M_capacityEy
FNDA:0,_ZNSt7__cxx1112basic_stringIcSt11char_traitsIcESaIcEE11_M_capacityEy
FN:278,_ZNKSt7__cxx1112basic_stringIcSt11char_traitsIcESaIcEE11_M_is_localEv
FNDA:0,_ZNKSt7__cxx1112basic_stringIcSt11char_traitsIcESaIcEE11_M_is_localEv
FN:296,_ZNSt7__cxx1112basic_stringIcSt11char_traitsIcESaIcEE10_M_disposeEv
FNDA:0,_ZNSt7__cxx1112basic_stringIcSt11char_traitsIcESaIcEE10_M_disposeEv
FN:304,_ZNSt7__cxx1112basic_stringIcSt11char_traitsIcESaIcEE10_M_destroyEy
FNDA:0,_ZNSt7__cxx1112basic_stringIcSt11char_traitsIcESaIcEE10_M_destroyEy
FN:359,_ZNSt7__cxx1112basic_stringIcSt11char_traitsIcESaIcEE16_M_get_allocatorEv
FNDA:0,_ZNSt7__cxx1112basic_stringIcSt11char_traitsIcESaIcEE16_M_get_allocatorEv
FN:364,_ZNKSt7__cxx1112basic_stringIcSt11char_traitsIcESaIcEE16_M_get_allocatorEv
FNDA:0,_ZNKSt7__cxx1112basic_stringIcSt11char_traitsIcESaIcEE16_M_get_allocatorEv
FN:448,_ZNSt7__cxx1112basic_stringIcSt11char_traitsIcESaIcEE7_S_copyEPcPKcy
FNDA:0,_ZNSt7__cxx1112basic_stringIcSt11char_traitsIcESaIcEE7_S_copyEPcPKcy
FN:613,_ZNSt7__cxx1112basic_stringIcSt11char_traitsIcESaIcEEC1ERKS4_
FNDA:0,_ZNSt7__cxx1112basic_stringIcSt11char_traitsIcESaIcEEC1ERKS4_
FN:895,_ZNSt7__cxx1112basic_stringIcSt11char_traitsIcESaIcEED1Ev
FNDA:0,_ZNSt7__cxx1112basic_stringIcSt11char_traitsIcESaIcEED1Ev
FN:1163,_ZNKSt7__cxx1112basic_stringIcSt11char_traitsIcESaIcEE4sizeEv
FNDA:0,_ZNKSt7__cxx1112basic_stringIcSt11char_traitsIcESaIcEE4sizeEv
FN:1175,_ZNKSt7__cxx1112basic_stringIcSt11char_traitsIcESaIcEE6lengthEv
FNDA:0,_ZNKSt7__cxx1112basic_stringIcSt11char_traitsIcESaIcEE6lengthEv
FN:1181,_ZNKSt7__cxx1112basic_stringIcSt11char_traitsIcESaIcEE8max_sizeEv
FNDA:0,_ZNKSt7__cxx1112basic_stringIcSt11char_traitsIcESaIcEE8max_sizeEv
FN:2886,_ZNKSt7__cxx1112basic_stringIcSt11char_traitsIcESaIcEE4dataEv
FNDA:4,_ZNKSt7__cxx1112basic_stringIcSt11char_traitsIcESaIcEE4dataEv
FN:4045,_ZSteqIcSt11char_traitsIcESaIcEEbRKNSt7__cxx1112basic_stringIT_T0_T1_EESA_
FNDA:0,_ZSteqIcSt11char_traitsIcESaIcEEbRKNSt7__cxx1112basic_stringIT_T0_T1_EESA_
FNF:21
FNH:1
DA:140,0
DA:142,0
DA:152,0
DA:208,0
DA:209,0
DA:228,0
DA:229,0
DA:233,0
DA:234,0
DA:238,0
DA:239,0
DA:243,0
DA:246,0
DA:254,0
DA:257,0
DA:265,0
DA:266,0
DA:278,0
DA:280,0
DA:282,0
DA:283,0
DA:284,0
DA:286,0
DA:296,0
DA:298,0
DA:299,0
DA:300,0
DA:304,0
DA:305,0
DA:359,0
DA:360,0
DA:364,0
DA:365,0
DA:378,0
DA:448,0
DA:450,0
DA:451,0
DA:453,0
DA:454,0
DA:613,0
DA:614,0
DA:615,0
DA:617,0
DA:618,0
DA:895,0
DA:896,0
DA:1163,0
DA:1165,0
DA:1166,0
DA:1167,0
DA:1168,0
DA:1175,0
DA:1176,0
DA:1181,0
DA:1183,0
DA:1185,0
DA:1186,0
DA:2886,4
DA:2887,4
DA:4045,0
DA:4049,0
DA:4050,0
LF:62
LH:2
end_of_record
